ccopy_reg
_reconstructor
p1
(cmatplotlib.font_manager
FontManager
p2
c__builtin__
object
p3
NtRp4
(dp5
S'ttflist'
p6
(lp7
g1
(cmatplotlib.font_manager
FontEntry
p8
g3
NtRp9
(dp10
S'style'
p11
Vnormal
p12
sS'name'
p13
S'Bitstream Vera Serif'
p14
sS'weight'
p15
I400
sS'stretch'
p16
g12
sS'variant'
p17
g12
sS'fname'
p18
VC:\u005cPython27\u005clib\u005csite-packages\u005cmatplotlib\u005cmpl-data\u005cfonts\u005cttf\u005cVeraSe.ttf
p19
sS'size'
p20
Vscalable
p21
sbag1
(g8
g3
NtRp22
(dp23
g11
g12
sg13
S'cmss10'
p24
sg15
I400
sg16
g12
sg17
g12
sg18
VC:\u005cPython27\u005clib\u005csite-packages\u005cmatplotlib\u005cmpl-data\u005cfonts\u005cttf\u005ccmss10.ttf
p25
sg20
g21
sbag1
(g8
g3
NtRp26
(dp27
g11
Vitalic
p28
sg13
S'STIXGeneral'
p29
sg15
I400
sg16
g12
sg17
g12
sg18
VC:\u005cPython27\u005clib\u005csite-packages\u005cmatplotlib\u005cmpl-data\u005cfonts\u005cttf\u005cSTIXGeneralItalic.ttf
p30
sg20
g21
sbag1
(g8
g3
NtRp31
(dp32
g11
g12
sg13
S'STIXSizeFourSym'
p33
sg15
I700
sg16
g12
sg17
g12
sg18
VC:\u005cPython27\u005clib\u005csite-packages\u005cmatplotlib\u005cmpl-data\u005cfonts\u005cttf\u005cSTIXSizFourSymBol.ttf
p34
sg20
g21
sbag1
(g8
g3
NtRp35
(dp36
g11
g12
sg13
S'cmsy10'
p37
sg15
I400
sg16
g12
sg17
g12
sg18
VC:\u005cPython27\u005clib\u005csite-packages\u005cmatplotlib\u005cmpl-data\u005cfonts\u005cttf\u005ccmsy10.ttf
p38
sg20
g21
sbag1
(g8
g3
NtRp39
(dp40
g11
g12
sg13
S'cmex10'
p41
sg15
I400
sg16
g12
sg17
g12
sg18
VC:\u005cPython27\u005clib\u005csite-packages\u005cmatplotlib\u005cmpl-data\u005cfonts\u005cttf\u005ccmex10.ttf
p42
sg20
g21
sbag1
(g8
g3
NtRp43
(dp44
g11
Voblique
p45
sg13
S'Bitstream Vera Sans Mono'
p46
sg15
I700
sg16
g12
sg17
g12
sg18
VC:\u005cPython27\u005clib\u005csite-packages\u005cmatplotlib\u005cmpl-data\u005cfonts\u005cttf\u005cVeraMoBI.ttf
p47
sg20
g21
sbag1
(g8
g3
NtRp48
(dp49
g11
g12
sg13
S'STIXSizeOneSym'
p50
sg15
I700
sg16
g12
sg17
g12
sg18
VC:\u005cPython27\u005clib\u005csite-packages\u005cmatplotlib\u005cmpl-data\u005cfonts\u005cttf\u005cSTIXSizOneSymBol.ttf
p51
sg20
g21
sbag1
(g8
g3
NtRp52
(dp53
g11
g28
sg13
S'STIXNonUnicode'
p54
sg15
I700
sg16
g12
sg17
g12
sg18
VC:\u005cPython27\u005clib\u005csite-packages\u005cmatplotlib\u005cmpl-data\u005cfonts\u005cttf\u005cSTIXNonUniBolIta.ttf
p55
sg20
g21
sbag1
(g8
g3
NtRp56
(dp57
g11
g12
sg13
S'STIXSizeThreeSym'
p58
sg15
I700
sg16
g12
sg17
g12
sg18
VC:\u005cPython27\u005clib\u005csite-packages\u005cmatplotlib\u005cmpl-data\u005cfonts\u005cttf\u005cSTIXSizThreeSymBol.ttf
p59
sg20
g21
sbag1
(g8
g3
NtRp60
(dp61
g11
g12
sg13
S'STIXSizeFourSym'
p62
sg15
I400
sg16
g12
sg17
g12
sg18
VC:\u005cPython27\u005clib\u005csite-packages\u005cmatplotlib\u005cmpl-data\u005cfonts\u005cttf\u005cSTIXSizFourSymReg.ttf
p63
sg20
g21
sbag1
(g8
g3
NtRp64
(dp65
g11
g12
sg13
S'STIXSizeTwoSym'
p66
sg15
I700
sg16
g12
sg17
g12
sg18
VC:\u005cPython27\u005clib\u005csite-packages\u005cmatplotlib\u005cmpl-data\u005cfonts\u005cttf\u005cSTIXSizTwoSymBol.ttf
p67
sg20
g21
sbag1
(g8
g3
NtRp68
(dp69
g11
g12
sg13
S'STIXNonUnicode'
p70
sg15
I700
sg16
g12
sg17
g12
sg18
VC:\u005cPython27\u005clib\u005csite-packages\u005cmatplotlib\u005cmpl-data\u005cfonts\u005cttf\u005cSTIXNonUniBol.ttf
p71
sg20
g21
sbag1
(g8
g3
NtRp72
(dp73
g11
g12
sg13
S'cmb10'
p74
sg15
I400
sg16
g12
sg17
g12
sg18
VC:\u005cPython27\u005clib\u005csite-packages\u005cmatplotlib\u005cmpl-data\u005cfonts\u005cttf\u005ccmb10.ttf
p75
sg20
g21
sbag1
(g8
g3
NtRp76
(dp77
g11
g12
sg13
S'STIXNonUnicode'
p78
sg15
I400
sg16
g12
sg17
g12
sg18
VC:\u005cPython27\u005clib\u005csite-packages\u005cmatplotlib\u005cmpl-data\u005cfonts\u005cttf\u005cSTIXNonUni.ttf
p79
sg20
g21
sbag1
(g8
g3
NtRp80
(dp81
g11
g12
sg13
S'Bitstream Vera Sans Mono'
p82
sg15
I400
sg16
g12
sg17
g12
sg18
VC:\u005cPython27\u005clib\u005csite-packages\u005cmatplotlib\u005cmpl-data\u005cfonts\u005cttf\u005cVeraMono.ttf
p83
sg20
g21
sbag1
(g8
g3
NtRp84
(dp85
g11
g12
sg13
S'STIXSizeTwoSym'
p86
sg15
I400
sg16
g12
sg17
g12
sg18
VC:\u005cPython27\u005clib\u005csite-packages\u005cmatplotlib\u005cmpl-data\u005cfonts\u005cttf\u005cSTIXSizTwoSymReg.ttf
p87
sg20
g21
sbag1
(g8
g3
NtRp88
(dp89
g11
g45
sg13
S'Bitstream Vera Sans'
p90
sg15
I400
sg16
g12
sg17
g12
sg18
VC:\u005cPython27\u005clib\u005csite-packages\u005cmatplotlib\u005cmpl-data\u005cfonts\u005cttf\u005cVeraIt.ttf
p91
sg20
g21
sbag1
(g8
g3
NtRp92
(dp93
g11
g12
sg13
S'STIXGeneral'
p94
sg15
I400
sg16
g12
sg17
g12
sg18
VC:\u005cPython27\u005clib\u005csite-packages\u005cmatplotlib\u005cmpl-data\u005cfonts\u005cttf\u005cSTIXGeneral.ttf
p95
sg20
g21
sbag1
(g8
g3
NtRp96
(dp97
g11
g12
sg13
S'cmtt10'
p98
sg15
I400
sg16
g12
sg17
g12
sg18
VC:\u005cPython27\u005clib\u005csite-packages\u005cmatplotlib\u005cmpl-data\u005cfonts\u005cttf\u005ccmtt10.ttf
p99
sg20
g21
sbag1
(g8
g3
NtRp100
(dp101
g11
g28
sg13
S'STIXGeneral'
p102
sg15
I700
sg16
g12
sg17
g12
sg18
VC:\u005cPython27\u005clib\u005csite-packages\u005cmatplotlib\u005cmpl-data\u005cfonts\u005cttf\u005cSTIXGeneralBolIta.ttf
p103
sg20
g21
sbag1
(g8
g3
NtRp104
(dp105
g11
g12
sg13
S'cmmi10'
p106
sg15
I400
sg16
g12
sg17
g12
sg18
VC:\u005cPython27\u005clib\u005csite-packages\u005cmatplotlib\u005cmpl-data\u005cfonts\u005cttf\u005ccmmi10.ttf
p107
sg20
g21
sbag1
(g8
g3
NtRp108
(dp109
g11
g12
sg13
S'STIXSizeFiveSym'
p110
sg15
I400
sg16
g12
sg17
g12
sg18
VC:\u005cPython27\u005clib\u005csite-packages\u005cmatplotlib\u005cmpl-data\u005cfonts\u005cttf\u005cSTIXSizFiveSymReg.ttf
p111
sg20
g21
sbag1
(g8
g3
NtRp112
(dp113
g11
g12
sg13
S'STIXGeneral'
p114
sg15
I700
sg16
g12
sg17
g12
sg18
VC:\u005cPython27\u005clib\u005csite-packages\u005cmatplotlib\u005cmpl-data\u005cfonts\u005cttf\u005cSTIXGeneralBol.ttf
p115
sg20
g21
sbag1
(g8
g3
NtRp116
(dp117
g11
g12
sg13
S'Bitstream Vera Serif'
p118
sg15
I700
sg16
g12
sg17
g12
sg18
VC:\u005cPython27\u005clib\u005csite-packages\u005cmatplotlib\u005cmpl-data\u005cfonts\u005cttf\u005cVeraSeBd.ttf
p119
sg20
g21
sbag1
(g8
g3
NtRp120
(dp121
g11
g28
sg13
S'STIXNonUnicode'
p122
sg15
I400
sg16
g12
sg17
g12
sg18
VC:\u005cPython27\u005clib\u005csite-packages\u005cmatplotlib\u005cmpl-data\u005cfonts\u005cttf\u005cSTIXNonUniIta.ttf
p123
sg20
g21
sbag1
(g8
g3
NtRp124
(dp125
g11
g45
sg13
S'Bitstream Vera Sans'
p126
sg15
I700
sg16
g12
sg17
g12
sg18
VC:\u005cPython27\u005clib\u005csite-packages\u005cmatplotlib\u005cmpl-data\u005cfonts\u005cttf\u005cVeraBI.ttf
p127
sg20
g21
sbag1
(g8
g3
NtRp128
(dp129
g11
g12
sg13
S'STIXSizeThreeSym'
p130
sg15
I400
sg16
g12
sg17
g12
sg18
VC:\u005cPython27\u005clib\u005csite-packages\u005cmatplotlib\u005cmpl-data\u005cfonts\u005cttf\u005cSTIXSizThreeSymReg.ttf
p131
sg20
g21
sbag1
(g8
g3
NtRp132
(dp133
g11
g12
sg13
S'STIXSizeOneSym'
p134
sg15
I400
sg16
g12
sg17
g12
sg18
VC:\u005cPython27\u005clib\u005csite-packages\u005cmatplotlib\u005cmpl-data\u005cfonts\u005cttf\u005cSTIXSizOneSymReg.ttf
p135
sg20
g21
sbag1
(g8
g3
NtRp136
(dp137
g11
g12
sg13
S'Bitstream Vera Sans'
p138
sg15
I700
sg16
g12
sg17
g12
sg18
VC:\u005cPython27\u005clib\u005csite-packages\u005cmatplotlib\u005cmpl-data\u005cfonts\u005cttf\u005cVeraBd.ttf
p139
sg20
g21
sbag1
(g8
g3
NtRp140
(dp141
g11
g45
sg13
S'Bitstream Vera Sans Mono'
p142
sg15
I400
sg16
g12
sg17
g12
sg18
VC:\u005cPython27\u005clib\u005csite-packages\u005cmatplotlib\u005cmpl-data\u005cfonts\u005cttf\u005cVeraMoIt.ttf
p143
sg20
g21
sbag1
(g8
g3
NtRp144
(dp145
g11
g12
sg13
S'Bitstream Vera Sans Mono'
p146
sg15
I700
sg16
g12
sg17
g12
sg18
VC:\u005cPython27\u005clib\u005csite-packages\u005cmatplotlib\u005cmpl-data\u005cfonts\u005cttf\u005cVeraMoBd.ttf
p147
sg20
g21
sbag1
(g8
g3
NtRp148
(dp149
g11
g12
sg13
S'cmr10'
p150
sg15
I400
sg16
g12
sg17
g12
sg18
VC:\u005cPython27\u005clib\u005csite-packages\u005cmatplotlib\u005cmpl-data\u005cfonts\u005cttf\u005ccmr10.ttf
p151
sg20
g21
sbag1
(g8
g3
NtRp152
(dp153
g11
g12
sg13
S'Bitstream Vera Sans'
p154
sg15
I400
sg16
g12
sg17
g12
sg18
VC:\u005cPython27\u005clib\u005csite-packages\u005cmatplotlib\u005cmpl-data\u005cfonts\u005cttf\u005cVera.ttf
p155
sg20
g21
sbag1
(g8
g3
NtRp156
(dp157
g11
g12
sg13
S'Courier New'
p158
sg15
I400
sg16
g12
sg17
g12
sg18
VC:\u005cWindows\u005cFonts\u005ccour.ttf
p159
sg20
g21
sbag1
(g8
g3
NtRp160
(dp161
g11
g12
sg13
S'Footlight MT Light'
p162
sg15
I200
sg16
g12
sg17
g12
sg18
Vc:\u005cwindows\u005cfonts\u005cftltlt.ttf
p163
sg20
g21
sbag1
(g8
g3
NtRp164
(dp165
g11
g28
sg13
S'Browallia New'
p166
sg15
I400
sg16
g12
sg17
g12
sg18
Vc:\u005cwindows\u005cfonts\u005cbrowai.ttf
p167
sg20
g21
sbag1
(g8
g3
NtRp168
(dp169
g11
g12
sg13
S'Stencil'
p170
sg15
I400
sg16
g12
sg17
g12
sg18
VC:\u005cWindows\u005cFonts\u005cSTENCIL.TTF
p171
sg20
g21
sbag1
(g8
g3
NtRp172
(dp173
g11
g12
sg13
S'Source Sans Pro'
p174
sg15
I200
sg16
g12
sg17
g12
sg18
VC:\u005cWindows\u005cFonts\u005cSourceSansPro-ExtraLight.ttf
p175
sg20
g21
sbag1
(g8
g3
NtRp176
(dp177
g11
g12
sg13
S'Cambria'
p178
sg15
I700
sg16
g12
sg17
g12
sg18
Vc:\u005cwindows\u005cfonts\u005ccambriab.ttf
p179
sg20
g21
sbag1
(g8
g3
NtRp180
(dp181
g11
g28
sg13
S'Verdana'
p182
sg15
I700
sg16
g12
sg17
g12
sg18
VC:\u005cWindows\u005cFonts\u005cverdanaz.ttf
p183
sg20
g21
sbag1
(g8
g3
NtRp184
(dp185
g11
g28
sg13
S'Palatino Linotype'
p186
sg15
I700
sg16
g12
sg17
g12
sg18
VC:\u005cWindows\u005cFonts\u005cpalabi.ttf
p187
sg20
g21
sbag1
(g8
g3
NtRp188
(dp189
g11
g28
sg13
S'JasmineUPC'
p190
sg15
I400
sg16
g12
sg17
g12
sg18
Vc:\u005cwindows\u005cfonts\u005cupcji.ttf
p191
sg20
g21
sbag1
(g8
g3
NtRp192
(dp193
g11
g12
sg13
S'Microsoft Tai Le'
p194
sg15
I700
sg16
g12
sg17
g12
sg18
VC:\u005cWindows\u005cFonts\u005ctaileb.ttf
p195
sg20
g21
sbag1
(g8
g3
NtRp196
(dp197
g11
g12
sg13
S'Arial'
p198
sg15
I900
sg16
g12
sg17
g12
sg18
VC:\u005cWindows\u005cFonts\u005cariblk.ttf
p199
sg20
g21
sbag1
(g8
g3
NtRp200
(dp201
g11
g12
sg13
S'Trebuchet MS'
p202
sg15
I700
sg16
g12
sg17
g12
sg18
Vc:\u005cwindows\u005cfonts\u005ctrebucbd.ttf
p203
sg20
g21
sbag1
(g8
g3
NtRp204
(dp205
g11
g28
sg13
S'Open Sans'
p206
sg15
I700
sg16
g12
sg17
g12
sg18
VC:\u005cWindows\u005cFonts\u005cOpenSans-BoldItalic.ttf
p207
sg20
g21
sbag1
(g8
g3
NtRp208
(dp209
g11
g28
sg13
S'Bell MT'
p210
sg15
I400
sg16
g12
sg17
g12
sg18
Vc:\u005cwindows\u005cfonts\u005cbelli.ttf
p211
sg20
g21
sbag1
(g8
g3
NtRp212
(dp213
g11
g28
sg13
S'Bodoni MT'
p214
sg15
I900
sg16
g12
sg17
g12
sg18
Vc:\u005cwindows\u005cfonts\u005cbod_blai.ttf
p215
sg20
g21
sbag1
(g8
g3
NtRp216
(dp217
g11
g12
sg13
S'Copperplate Gothic Bold'
p218
sg15
I700
sg16
g12
sg17
g12
sg18
VC:\u005cWindows\u005cFonts\u005cCOPRGTB.TTF
p219
sg20
g21
sbag1
(g8
g3
NtRp220
(dp221
g11
g12
sg13
S'Berlin Sans FB'
p222
sg15
I700
sg16
g12
sg17
g12
sg18
VC:\u005cWindows\u005cFonts\u005cBRLNSB.TTF
p223
sg20
g21
sbag1
(g8
g3
NtRp224
(dp225
g11
g12
sg13
S'BrowalliaUPC'
p226
sg15
I400
sg16
g12
sg17
g12
sg18
Vc:\u005cwindows\u005cfonts\u005cbrowau.ttf
p227
sg20
g21
sbag1
(g8
g3
NtRp228
(dp229
g11
g12
sg13
S'KaiTi'
p230
sg15
I400
sg16
g12
sg17
g12
sg18
Vc:\u005cwindows\u005cfonts\u005csimkai.ttf
p231
sg20
g21
sbag1
(g8
g3
NtRp232
(dp233
g11
g12
sg13
S'Franklin Gothic Demi'
p234
sg15
I600
sg16
g12
sg17
g12
sg18
Vc:\u005cwindows\u005cfonts\u005cfradm.ttf
p235
sg20
g21
sbag1
(g8
g3
NtRp236
(dp237
g11
g28
sg13
S'Trebuchet MS'
p238
sg15
I700
sg16
g12
sg17
g12
sg18
Vc:\u005cwindows\u005cfonts\u005ctrebucbi.ttf
p239
sg20
g21
sbag1
(g8
g3
NtRp240
(dp241
g11
g12
sg13
S'Monotype Corsiva'
p242
sg15
I400
sg16
g12
sg17
g12
sg18
Vc:\u005cwindows\u005cfonts\u005cmtcorsva.ttf
p243
sg20
g21
sbag1
(g8
g3
NtRp244
(dp245
g11
g28
sg13
S'Segoe UI'
p246
sg15
I700
sg16
g12
sg17
g12
sg18
Vc:\u005cwindows\u005cfonts\u005csegoeuiz.ttf
p247
sg20
g21
sbag1
(g8
g3
NtRp248
(dp249
g11
g12
sg13
S'Bodoni MT'
p250
sg15
I400
sg16
Vcondensed
p251
sg17
g12
sg18
Vc:\u005cwindows\u005cfonts\u005cbod_cr.ttf
p252
sg20
g21
sbag1
(g8
g3
NtRp253
(dp254
g11
g28
sg13
S'Bodoni MT'
p255
sg15
I700
sg16
g12
sg17
g12
sg18
Vc:\u005cwindows\u005cfonts\u005cbod_bi.ttf
p256
sg20
g21
sbag1
(g8
g3
NtRp257
(dp258
g11
g28
sg13
S'Gill Sans MT'
p259
sg15
I400
sg16
g12
sg17
g12
sg18
Vc:\u005cwindows\u005cfonts\u005cgili____.ttf
p260
sg20
g21
sbag1
(g8
g3
NtRp261
(dp262
g11
g12
sg13
S'Kunstler Script'
p263
sg15
I400
sg16
g12
sg17
g12
sg18
VC:\u005cWindows\u005cFonts\u005cKUNSTLER.TTF
p264
sg20
g21
sbag1
(g8
g3
NtRp265
(dp266
g11
g28
sg13
S'BrowalliaUPC'
p267
sg15
I700
sg16
g12
sg17
g12
sg18
Vc:\u005cwindows\u005cfonts\u005cbrowauz.ttf
p268
sg20
g21
sbag1
(g8
g3
NtRp269
(dp270
g11
g12
sg13
S'Malgun Gothic'
p271
sg15
I700
sg16
g12
sg17
g12
sg18
VC:\u005cWindows\u005cFonts\u005cmalgunbd.ttf
p272
sg20
g21
sbag1
(g8
g3
NtRp273
(dp274
g11
g12
sg13
S'Imprint MT Shadow'
p275
sg15
I400
sg16
g12
sg17
g12
sg18
Vc:\u005cwindows\u005cfonts\u005cimprisha.ttf
p276
sg20
g21
sbag1
(g8
g3
NtRp277
(dp278
g11
g12
sg13
S'PT Serif'
p279
sg15
I400
sg16
g12
sg17
g12
sg18
Vc:\u005cwindows\u005cfonts\u005cpt_serif-web-regular.ttf
p280
sg20
g21
sbag1
(g8
g3
NtRp281
(dp282
g11
g12
sg13
S'DokChampa'
p283
sg15
I400
sg16
g12
sg17
g12
sg18
VC:\u005cWindows\u005cFonts\u005cdokchamp.ttf
p284
sg20
g21
sbag1
(g8
g3
NtRp285
(dp286
g11
g12
sg13
S'PT Serif'
p287
sg15
I700
sg16
g12
sg17
g12
sg18
Vc:\u005cwindows\u005cfonts\u005cpt_serif-web-bold.ttf
p288
sg20
g21
sbag1
(g8
g3
NtRp289
(dp290
g11
g12
sg13
S'Curlz MT'
p291
sg15
I400
sg16
g12
sg17
g12
sg18
VC:\u005cWindows\u005cFonts\u005cCURLZ___.TTF
p292
sg20
g21
sbag1
(g8
g3
NtRp293
(dp294
g11
g28
sg13
S'Arial'
p295
sg15
I400
sg16
g12
sg17
g12
sg18
Vc:\u005cwindows\u005cfonts\u005cariali.ttf
p296
sg20
g21
sbag1
(g8
g3
NtRp297
(dp298
g11
g12
sg13
S'Tw Cen MT'
p299
sg15
I400
sg16
g12
sg17
g12
sg18
Vc:\u005cwindows\u005cfonts\u005ctcm_____.ttf
p300
sg20
g21
sbag1
(g8
g3
NtRp301
(dp302
g11
g12
sg13
S'Khmer UI'
p303
sg15
I700
sg16
g12
sg17
g12
sg18
Vc:\u005cwindows\u005cfonts\u005ckhmeruib.ttf
p304
sg20
g21
sbag1
(g8
g3
NtRp305
(dp306
g11
g12
sg13
S'Tw Cen MT Condensed'
p307
sg15
I700
sg16
g251
sg17
g12
sg18
Vc:\u005cwindows\u005cfonts\u005ctccb____.ttf
p308
sg20
g21
sbag1
(g8
g3
NtRp309
(dp310
g11
g45
sg13
S'DejaVu Sans'
p311
sg15
I700
sg16
g251
sg17
g12
sg18
VC:\u005cWindows\u005cFonts\u005cDejaVuSansCondensed-BoldOblique.ttf
p312
sg20
g21
sbag1
(g8
g3
NtRp313
(dp314
g11
g28
sg13
S'Gentium Book Basic'
p315
sg15
I700
sg16
g12
sg17
g12
sg18
Vc:\u005cwindows\u005cfonts\u005cgenbkbasbi.ttf
p316
sg20
g21
sbag1
(g8
g3
NtRp317
(dp318
g11
g12
sg13
S'Simplified Arabic'
p319
sg15
I400
sg16
g12
sg17
g12
sg18
Vc:\u005cwindows\u005cfonts\u005csimpo.ttf
p320
sg20
g21
sbag1
(g8
g3
NtRp321
(dp322
g11
g12
sg13
S'Arabic Typesetting'
p323
sg15
I400
sg16
g12
sg17
g12
sg18
Vc:\u005cwindows\u005cfonts\u005carabtype.ttf
p324
sg20
g21
sbag1
(g8
g3
NtRp325
(dp326
g11
g12
sg13
S'Kartika'
p327
sg15
I700
sg16
g12
sg17
g12
sg18
VC:\u005cWindows\u005cFonts\u005ckartikab.ttf
p328
sg20
g21
sbag1
(g8
g3
NtRp329
(dp330
g11
g12
sg13
S'Source Sans Pro'
p331
sg15
I700
sg16
g12
sg17
g12
sg18
VC:\u005cWindows\u005cFonts\u005cSourceSansPro-Semibold.ttf
p332
sg20
g21
sbag1
(g8
g3
NtRp333
(dp334
g11
g12
sg13
S'Khmer UI'
p335
sg15
I400
sg16
g12
sg17
g12
sg18
Vc:\u005cwindows\u005cfonts\u005ckhmerui.ttf
p336
sg20
g21
sbag1
(g8
g3
NtRp337
(dp338
g11
g12
sg13
S'Segoe UI'
p339
sg15
I400
sg16
g12
sg17
g12
sg18
Vc:\u005cwindows\u005cfonts\u005cseguisb.ttf
p340
sg20
g21
sbag1
(g8
g3
NtRp341
(dp342
g11
g28
sg13
S'IrisUPC'
p343
sg15
I700
sg16
g12
sg17
g12
sg18
VC:\u005cWindows\u005cFonts\u005cupcibi.ttf
p344
sg20
g21
sbag1
(g8
g3
NtRp345
(dp346
g11
g12
sg13
S'Kalinga'
p347
sg15
I400
sg16
g12
sg17
g12
sg18
VC:\u005cWindows\u005cFonts\u005ckalinga.ttf
p348
sg20
g21
sbag1
(g8
g3
NtRp349
(dp350
g11
g28
sg13
S'Open Sans'
p351
sg15
I400
sg16
g12
sg17
g12
sg18
Vc:\u005cwindows\u005cfonts\u005copensans-italic.ttf
p352
sg20
g21
sbag1
(g8
g3
NtRp353
(dp354
g11
g12
sg13
S'Kokila'
p355
sg15
I700
sg16
g12
sg17
g12
sg18
VC:\u005cWindows\u005cFonts\u005ckokilab.ttf
p356
sg20
g21
sbag1
(g8
g3
NtRp357
(dp358
g11
g12
sg13
S'Franklin Gothic Heavy'
p359
sg15
I800
sg16
g12
sg17
g12
sg18
VC:\u005cWindows\u005cFonts\u005cFRAHV.TTF
p360
sg20
g21
sbag1
(g8
g3
NtRp361
(dp362
g11
g12
sg13
S'Calibri'
p363
sg15
I200
sg16
g12
sg17
g12
sg18
VC:\u005cWindows\u005cFonts\u005ccalibril.ttf
p364
sg20
g21
sbag1
(g8
g3
NtRp365
(dp366
g11
g12
sg13
S'Cordia New'
p367
sg15
I700
sg16
g12
sg17
g12
sg18
VC:\u005cWindows\u005cFonts\u005ccordiab.ttf
p368
sg20
g21
sbag1
(g8
g3
NtRp369
(dp370
g11
g12
sg13
S'Liberation Serif'
p371
sg15
I400
sg16
g12
sg17
g12
sg18
Vc:\u005cwindows\u005cfonts\u005cliberationserif-regular.ttf
p372
sg20
g21
sbag1
(g8
g3
NtRp373
(dp374
g11
g12
sg13
S'Euphemia'
p375
sg15
I400
sg16
g12
sg17
g12
sg18
VC:\u005cWindows\u005cFonts\u005ceuphemia.ttf
p376
sg20
g21
sbag1
(g8
g3
NtRp377
(dp378
g11
g28
sg13
S'Georgia'
p379
sg15
I400
sg16
g12
sg17
g12
sg18
VC:\u005cWindows\u005cFonts\u005cgeorgiai.ttf
p380
sg20
g21
sbag1
(g8
g3
NtRp381
(dp382
g11
g12
sg13
S'Leelawadee'
p383
sg15
I700
sg16
g12
sg17
g12
sg18
VC:\u005cWindows\u005cFonts\u005cleelawdb.ttf
p384
sg20
g21
sbag1
(g8
g3
NtRp385
(dp386
g11
g12
sg13
S'Pristina'
p387
sg15
I400
sg16
g12
sg17
g12
sg18
Vc:\u005cwindows\u005cfonts\u005cpristina.ttf
p388
sg20
g21
sbag1
(g8
g3
NtRp389
(dp390
g11
g12
sg13
S'Caladea'
p391
sg15
I700
sg16
g12
sg17
g12
sg18
VC:\u005cWindows\u005cFonts\u005cCaladea-Bold.ttf
p392
sg20
g21
sbag1
(g8
g3
NtRp393
(dp394
g11
g12
sg13
S'DejaVu Serif'
p395
sg15
I700
sg16
g12
sg17
g12
sg18
Vc:\u005cwindows\u005cfonts\u005cdejavuserif-bold.ttf
p396
sg20
g21
sbag1
(g8
g3
NtRp397
(dp398
g11
g12
sg13
S'Baskerville Old Face'
p399
sg15
I400
sg16
g12
sg17
g12
sg18
VC:\u005cWindows\u005cFonts\u005cBASKVILL.TTF
p400
sg20
g21
sbag1
(g8
g3
NtRp401
(dp402
g11
g45
sg13
S'Lucida Sans Typewriter'
p403
sg15
I400
sg16
g12
sg17
g12
sg18
VC:\u005cWindows\u005cFonts\u005cLTYPEO.TTF
p404
sg20
g21
sbag1
(g8
g3
NtRp405
(dp406
g11
g12
sg13
S'Microsoft Himalaya'
p407
sg15
I400
sg16
g12
sg17
g12
sg18
VC:\u005cWindows\u005cFonts\u005chimalaya.ttf
p408
sg20
g21
sbag1
(g8
g3
NtRp409
(dp410
g11
g12
sg13
S'Tahoma'
p411
sg15
I700
sg16
g12
sg17
g12
sg18
Vc:\u005cwindows\u005cfonts\u005ctahomabd.ttf
p412
sg20
g21
sbag1
(g8
g3
NtRp413
(dp414
g11
g12
sg13
S'Cordia New'
p415
sg15
I400
sg16
g12
sg17
g12
sg18
VC:\u005cWindows\u005cFonts\u005ccordia.ttf
p416
sg20
g21
sbag1
(g8
g3
NtRp417
(dp418
g11
g28
sg13
S'Californian FB'
p419
sg15
I400
sg16
g12
sg17
g12
sg18
Vc:\u005cwindows\u005cfonts\u005ccalifi.ttf
p420
sg20
g21
sbag1
(g8
g3
NtRp421
(dp422
g11
g12
sg13
S'Gautami'
p423
sg15
I700
sg16
g12
sg17
g12
sg18
Vc:\u005cwindows\u005cfonts\u005cgautamib.ttf
p424
sg20
g21
sbag1
(g8
g3
NtRp425
(dp426
g11
g28
sg13
S'Linux Libertine G'
p427
sg15
I700
sg16
g12
sg17
g12
sg18
VC:\u005cWindows\u005cFonts\u005cLinLibertine_RZI_G.ttf
p428
sg20
g21
sbag1
(g8
g3
NtRp429
(dp430
g11
g12
sg13
S'DejaVu Sans'
p431
sg15
I700
sg16
g251
sg17
g12
sg18
Vc:\u005cwindows\u005cfonts\u005cdejavusanscondensed-bold.ttf
p432
sg20
g21
sbag1
(g8
g3
NtRp433
(dp434
g11
g12
sg13
S'Liberation Sans Narrow'
p435
sg15
I700
sg16
g251
sg17
g12
sg18
Vc:\u005cwindows\u005cfonts\u005cliberationsansnarrow-bold.ttf
p436
sg20
g21
sbag1
(g8
g3
NtRp437
(dp438
g11
g28
sg13
S'Gill Sans MT'
p439
sg15
I700
sg16
g12
sg17
g12
sg18
Vc:\u005cwindows\u005cfonts\u005cgilbi___.ttf
p440
sg20
g21
sbag1
(g8
g3
NtRp441
(dp442
g11
g12
sg13
S'Tempus Sans ITC'
p443
sg15
I400
sg16
g12
sg17
g12
sg18
VC:\u005cWindows\u005cFonts\u005cTEMPSITC.TTF
p444
sg20
g21
sbag1
(g8
g3
NtRp445
(dp446
g11
g28
sg13
S'Angsana New'
p447
sg15
I400
sg16
g12
sg17
g12
sg18
VC:\u005cWindows\u005cFonts\u005cangsai.ttf
p448
sg20
g21
sbag1
(g8
g3
NtRp449
(dp450
g11
g12
sg13
S'FreesiaUPC'
p451
sg15
I700
sg16
g12
sg17
g12
sg18
VC:\u005cWindows\u005cFonts\u005cupcfb.ttf
p452
sg20
g21
sbag1
(g8
g3
NtRp453
(dp454
g11
g12
sg13
S'Arial'
p455
sg15
I700
sg16
g12
sg17
g12
sg18
Vc:\u005cwindows\u005cfonts\u005carialbd.ttf
p456
sg20
g21
sbag1
(g8
g3
NtRp457
(dp458
g11
g12
sg13
S'Sakkal Majalla'
p459
sg15
I400
sg16
g12
sg17
g12
sg18
VC:\u005cWindows\u005cFonts\u005cmajalla.ttf
p460
sg20
g21
sbag1
(g8
g3
NtRp461
(dp462
g11
g45
sg13
S'DejaVu Sans'
p463
sg15
I700
sg16
g12
sg17
g12
sg18
VC:\u005cWindows\u005cFonts\u005cDejaVuSans-BoldOblique.ttf
p464
sg20
g21
sbag1
(g8
g3
NtRp465
(dp466
g11
g12
sg13
S'Gentium Book Basic'
p467
sg15
I700
sg16
g12
sg17
g12
sg18
VC:\u005cWindows\u005cFonts\u005cGenBkBasB.ttf
p468
sg20
g21
sbag1
(g8
g3
NtRp469
(dp470
g11
g12
sg13
S'Microsoft YaHei'
p471
sg15
I400
sg16
g12
sg17
g12
sg18
Vc:\u005cwindows\u005cfonts\u005cmsyh.ttf
p472
sg20
g21
sbag1
(g8
g3
NtRp473
(dp474
g11
g12
sg13
S'Tunga'
p475
sg15
I400
sg16
g12
sg17
g12
sg18
VC:\u005cWindows\u005cFonts\u005ctunga.ttf
p476
sg20
g21
sbag1
(g8
g3
NtRp477
(dp478
g11
g12
sg13
S'Lucida Fax'
p479
sg15
I700
sg16
g12
sg17
g12
sg18
Vc:\u005cwindows\u005cfonts\u005clfaxd.ttf
p480
sg20
g21
sbag1
(g8
g3
NtRp481
(dp482
g11
g28
sg13
S'Cambria'
p483
sg15
I700
sg16
g12
sg17
g12
sg18
VC:\u005cWindows\u005cFonts\u005ccambriaz.ttf
p484
sg20
g21
sbag1
(g8
g3
NtRp485
(dp486
g11
g28
sg13
S'Browallia New'
p487
sg15
I700
sg16
g12
sg17
g12
sg18
VC:\u005cWindows\u005cFonts\u005cbrowaz.ttf
p488
sg20
g21
sbag1
(g8
g3
NtRp489
(dp490
g11
g28
sg13
S'Constantia'
p491
sg15
I700
sg16
g12
sg17
g12
sg18
VC:\u005cWindows\u005cFonts\u005cconstanz.ttf
p492
sg20
g21
sbag1
(g8
g3
NtRp493
(dp494
g11
g28
sg13
S'Elephant'
p495
sg15
I400
sg16
g12
sg17
g12
sg18
VC:\u005cWindows\u005cFonts\u005cELEPHNTI.TTF
p496
sg20
g21
sbag1
(g8
g3
NtRp497
(dp498
g11
g12
sg13
S'Maiandra GD'
p499
sg15
I400
sg16
g12
sg17
g12
sg18
Vc:\u005cwindows\u005cfonts\u005cmaian.ttf
p500
sg20
g21
sbag1
(g8
g3
NtRp501
(dp502
g11
g12
sg13
S'Narkisim'
p503
sg15
I400
sg16
g12
sg17
g12
sg18
VC:\u005cWindows\u005cFonts\u005cnrkis.ttf
p504
sg20
g21
sbag1
(g8
g3
NtRp505
(dp506
g11
g12
sg13
S'Microsoft JhengHei'
p507
sg15
I700
sg16
g12
sg17
g12
sg18
Vc:\u005cwindows\u005cfonts\u005cmsjhbd.ttf
p508
sg20
g21
sbag1
(g8
g3
NtRp509
(dp510
g11
g28
sg13
S'Segoe UI'
p511
sg15
I400
sg16
g12
sg17
g12
sg18
VC:\u005cWindows\u005cFonts\u005csegoeuii.ttf
p512
sg20
g21
sbag1
(g8
g3
NtRp513
(dp514
g11
g12
sg13
S'DejaVu Sans Mono'
p515
sg15
I400
sg16
g12
sg17
g12
sg18
VC:\u005cWindows\u005cFonts\u005cDejaVuSansMono.ttf
p516
sg20
g21
sbag1
(g8
g3
NtRp517
(dp518
g11
g12
sg13
S'Segoe UI'
p519
sg15
I400
sg16
g12
sg17
g12
sg18
Vc:\u005cwindows\u005cfonts\u005csegoeui.ttf
p520
sg20
g21
sbag1
(g8
g3
NtRp521
(dp522
g11
g12
sg13
S'Levenim MT'
p523
sg15
I700
sg16
g12
sg17
g12
sg18
VC:\u005cWindows\u005cFonts\u005clvnmbd.ttf
p524
sg20
g21
sbag1
(g8
g3
NtRp525
(dp526
g11
g12
sg13
S'Lucida Sans Typewriter'
p527
sg15
I700
sg16
g12
sg17
g12
sg18
VC:\u005cWindows\u005cFonts\u005cLTYPEB.TTF
p528
sg20
g21
sbag1
(g8
g3
NtRp529
(dp530
g11
g12
sg13
S'Calisto MT'
p531
sg15
I700
sg16
g12
sg17
g12
sg18
VC:\u005cWindows\u005cFonts\u005cCALISTB.TTF
p532
sg20
g21
sbag1
(g8
g3
NtRp533
(dp534
g11
g12
sg13
S'Linux Libertine Display G'
p535
sg15
I400
sg16
g12
sg17
g12
sg18
Vc:\u005cwindows\u005cfonts\u005clinlibertine_dr_g.ttf
p536
sg20
g21
sbag1
(g8
g3
NtRp537
(dp538
g11
g28
sg13
S'Book Antiqua'
p539
sg15
I700
sg16
g12
sg17
g12
sg18
Vc:\u005cwindows\u005cfonts\u005cantquabi.ttf
p540
sg20
g21
sbag1
(g8
g3
NtRp541
(dp542
g11
g12
sg13
S'Microsoft PhagsPa'
p543
sg15
I700
sg16
g12
sg17
g12
sg18
VC:\u005cWindows\u005cFonts\u005cphagspab.ttf
p544
sg20
g21
sbag1
(g8
g3
NtRp545
(dp546
g11
g28
sg13
S'Tw Cen MT'
p547
sg15
I400
sg16
g12
sg17
g12
sg18
VC:\u005cWindows\u005cFonts\u005cTCMI____.TTF
p548
sg20
g21
sbag1
(g8
g3
NtRp549
(dp550
g11
g28
sg13
S'PT Serif'
p551
sg15
I400
sg16
g12
sg17
g12
sg18
Vc:\u005cwindows\u005cfonts\u005cpt_serif-web-italic.ttf
p552
sg20
g21
sbag1
(g8
g3
NtRp553
(dp554
g11
g12
sg13
S'Copperplate Gothic Light'
p555
sg15
I200
sg16
g12
sg17
g12
sg18
VC:\u005cWindows\u005cFonts\u005cCOPRGTL.TTF
p556
sg20
g21
sbag1
(g8
g3
NtRp557
(dp558
g11
g12
sg13
S'Kristen ITC'
p559
sg15
I400
sg16
g12
sg17
g12
sg18
VC:\u005cWindows\u005cFonts\u005cITCKRIST.TTF
p560
sg20
g21
sbag1
(g8
g3
NtRp561
(dp562
g11
g12
sg13
S'Marlett'
p563
sg15
I400
sg16
g12
sg17
g12
sg18
VC:\u005cWindows\u005cFonts\u005cmarlett.ttf
p564
sg20
g21
sbag1
(g8
g3
NtRp565
(dp566
g11
g12
sg13
S'Browallia New'
p567
sg15
I700
sg16
g12
sg17
g12
sg18
Vc:\u005cwindows\u005cfonts\u005cbrowab.ttf
p568
sg20
g21
sbag1
(g8
g3
NtRp569
(dp570
g11
g12
sg13
S'Corbel'
p571
sg15
I700
sg16
g12
sg17
g12
sg18
Vc:\u005cwindows\u005cfonts\u005ccorbelb.ttf
p572
sg20
g21
sbag1
(g8
g3
NtRp573
(dp574
g11
g12
sg13
S'Californian FB'
p575
sg15
I700
sg16
g12
sg17
g12
sg18
Vc:\u005cwindows\u005cfonts\u005ccalifb.ttf
p576
sg20
g21
sbag1
(g8
g3
NtRp577
(dp578
g11
g12
sg13
S'Simplified Arabic'
p579
sg15
I700
sg16
g12
sg17
g12
sg18
Vc:\u005cwindows\u005cfonts\u005csimpbdo.ttf
p580
sg20
g21
sbag1
(g8
g3
NtRp581
(dp582
g11
g12
sg13
S'Franklin Gothic Book'
p583
sg15
I400
sg16
g12
sg17
g12
sg18
VC:\u005cWindows\u005cFonts\u005cFRABK.TTF
p584
sg20
g21
sbag1
(g8
g3
NtRp585
(dp586
g11
g12
sg13
S'DejaVu Sans'
p587
sg15
I200
sg16
g12
sg17
g12
sg18
VC:\u005cWindows\u005cFonts\u005cDejaVuSans-ExtraLight.ttf
p588
sg20
g21
sbag1
(g8
g3
NtRp589
(dp590
g11
g12
sg13
S'Informal Roman'
p591
sg15
I500
sg16
g12
sg17
g12
sg18
Vc:\u005cwindows\u005cfonts\u005cinfroman.ttf
p592
sg20
g21
sbag1
(g8
g3
NtRp593
(dp594
g11
g12
sg13
S'LilyUPC'
p595
sg15
I400
sg16
g12
sg17
g12
sg18
VC:\u005cWindows\u005cFonts\u005cupcll.ttf
p596
sg20
g21
sbag1
(g8
g3
NtRp597
(dp598
g11
g12
sg13
S'Agency FB'
p599
sg15
I700
sg16
g12
sg17
g12
sg18
Vc:\u005cwindows\u005cfonts\u005cagencyb.ttf
p600
sg20
g21
sbag1
(g8
g3
NtRp601
(dp602
g11
g12
sg13
S'Kristen ITC'
p603
sg15
I400
sg16
g12
sg17
g12
sg18
Vc:\u005cwindows\u005cfonts\u005citckrist.ttf
p604
sg20
g21
sbag1
(g8
g3
NtRp605
(dp606
g11
g28
sg13
S'Gentium Book Basic'
p607
sg15
I700
sg16
g12
sg17
g12
sg18
VC:\u005cWindows\u005cFonts\u005cGenBkBasBI.ttf
p608
sg20
g21
sbag1
(g8
g3
NtRp609
(dp610
g11
g12
sg13
S'Arial Rounded MT Bold'
p611
sg15
I700
sg16
g12
sg17
g12
sg18
VC:\u005cWindows\u005cFonts\u005cARLRDBD.TTF
p612
sg20
g21
sbag1
(g8
g3
NtRp613
(dp614
g11
g12
sg13
S'Blackadder ITC'
p615
sg15
I900
sg16
g12
sg17
g12
sg18
VC:\u005cWindows\u005cFonts\u005cITCBLKAD.TTF
p616
sg20
g21
sbag1
(g8
g3
NtRp617
(dp618
g11
g12
sg13
S'Cooper Black'
p619
sg15
I900
sg16
g12
sg17
g12
sg18
Vc:\u005cwindows\u005cfonts\u005ccoopbl.ttf
p620
sg20
g21
sbag1
(g8
g3
NtRp621
(dp622
g11
g45
sg13
S'Lucida Sans Typewriter'
p623
sg15
I700
sg16
g12
sg17
g12
sg18
Vc:\u005cwindows\u005cfonts\u005cltypebo.ttf
p624
sg20
g21
sbag1
(g8
g3
NtRp625
(dp626
g11
g12
sg13
S'Vrinda'
p627
sg15
I700
sg16
g12
sg17
g12
sg18
VC:\u005cWindows\u005cFonts\u005cvrindab.ttf
p628
sg20
g21
sbag1
(g8
g3
NtRp629
(dp630
g11
g12
sg13
S'Kalinga'
p631
sg15
I700
sg16
g12
sg17
g12
sg18
VC:\u005cWindows\u005cFonts\u005ckalingab.ttf
p632
sg20
g21
sbag1
(g8
g3
NtRp633
(dp634
g11
g28
sg13
S'Calibri'
p635
sg15
I400
sg16
g12
sg17
g12
sg18
VC:\u005cWindows\u005cFonts\u005ccalibrii.ttf
p636
sg20
g21
sbag1
(g8
g3
NtRp637
(dp638
g11
g12
sg13
S'Source Sans Pro'
p639
sg15
I900
sg16
g12
sg17
g12
sg18
VC:\u005cWindows\u005cFonts\u005cSourceSansPro-Black.ttf
p640
sg20
g21
sbag1
(g8
g3
NtRp641
(dp642
g11
g28
sg13
S'Franklin Gothic Medium'
p643
sg15
I500
sg16
g12
sg17
g12
sg18
VC:\u005cWindows\u005cFonts\u005cframdit.ttf
p644
sg20
g21
sbag1
(g8
g3
NtRp645
(dp646
g11
g28
sg13
S'Utsaah'
p647
sg15
I400
sg16
g12
sg17
g12
sg18
Vc:\u005cwindows\u005cfonts\u005cutsaahi.ttf
p648
sg20
g21
sbag1
(g8
g3
NtRp649
(dp650
g11
g12
sg13
S'Source Sans Pro'
p651
sg15
I700
sg16
g12
sg17
g12
sg18
VC:\u005cWindows\u005cFonts\u005cSourceSansPro-Bold.ttf
p652
sg20
g21
sbag1
(g8
g3
NtRp653
(dp654
g11
g12
sg13
S'Modern No. 20'
p655
sg15
I400
sg16
g12
sg17
g12
sg18
Vc:\u005cwindows\u005cfonts\u005cmod20.ttf
p656
sg20
g21
sbag1
(g8
g3
NtRp657
(dp658
g11
g28
sg13
S'DilleniaUPC'
p659
sg15
I400
sg16
g12
sg17
g12
sg18
Vc:\u005cwindows\u005cfonts\u005cupcdi.ttf
p660
sg20
g21
sbag1
(g8
g3
NtRp661
(dp662
g11
g12
sg13
S'DFKai-SB'
p663
sg15
I400
sg16
g12
sg17
g12
sg18
VC:\u005cWindows\u005cFonts\u005ckaiu.ttf
p664
sg20
g21
sbag1
(g8
g3
NtRp665
(dp666
g11
g12
sg13
S'OCR A Extended'
p667
sg15
I400
sg16
g12
sg17
g12
sg18
Vc:\u005cwindows\u005cfonts\u005cocraext.ttf
p668
sg20
g21
sbag1
(g8
g3
NtRp669
(dp670
g11
g28
sg13
S'DejaVu Serif'
p671
sg15
I400
sg16
g12
sg17
g12
sg18
Vc:\u005cwindows\u005cfonts\u005cdejavuserif-italic.ttf
p672
sg20
g21
sbag1
(g8
g3
NtRp673
(dp674
g11
g28
sg13
S'AngsanaUPC'
p675
sg15
I700
sg16
g12
sg17
g12
sg18
Vc:\u005cwindows\u005cfonts\u005cangsauz.ttf
p676
sg20
g21
sbag1
(g8
g3
NtRp677
(dp678
g11
g12
sg13
S'Shonar Bangla'
p679
sg15
I400
sg16
g12
sg17
g12
sg18
Vc:\u005cwindows\u005cfonts\u005cshonar.ttf
p680
sg20
g21
sbag1
(g8
g3
NtRp681
(dp682
g11
g12
sg13
S'Goudy Old Style'
p683
sg15
I700
sg16
g12
sg17
g12
sg18
VC:\u005cWindows\u005cFonts\u005cGOUDOSB.TTF
p684
sg20
g21
sbag1
(g8
g3
NtRp685
(dp686
g11
g28
sg13
S'Lucida Sans'
p687
sg15
I400
sg16
g12
sg17
g12
sg18
Vc:\u005cwindows\u005cfonts\u005clsansi.ttf
p688
sg20
g21
sbag1
(g8
g3
NtRp689
(dp690
g11
g28
sg13
S'KodchiangUPC'
p691
sg15
I400
sg16
g12
sg17
g12
sg18
VC:\u005cWindows\u005cFonts\u005cupcki.ttf
p692
sg20
g21
sbag1
(g8
g3
NtRp693
(dp694
g11
g12
sg13
S'Utsaah'
p695
sg15
I700
sg16
g12
sg17
g12
sg18
VC:\u005cWindows\u005cFonts\u005cutsaahb.ttf
p696
sg20
g21
sbag1
(g8
g3
NtRp697
(dp698
g11
g12
sg13
S'Eras Medium ITC'
p699
sg15
I500
sg16
g12
sg17
g12
sg18
Vc:\u005cwindows\u005cfonts\u005cerasmd.ttf
p700
sg20
g21
sbag1
(g8
g3
NtRp701
(dp702
g11
g28
sg13
S'Verdana'
p703
sg15
I400
sg16
g12
sg17
g12
sg18
Vc:\u005cwindows\u005cfonts\u005cverdanai.ttf
p704
sg20
g21
sbag1
(g8
g3
NtRp705
(dp706
g11
g12
sg13
S'Jokerman'
p707
sg15
I400
sg16
g12
sg17
g12
sg18
VC:\u005cWindows\u005cFonts\u005cJOKERMAN.TTF
p708
sg20
g21
sbag1
(g8
g3
NtRp709
(dp710
g11
g12
sg13
S'Constantia'
p711
sg15
I700
sg16
g12
sg17
g12
sg18
VC:\u005cWindows\u005cFonts\u005cconstanb.ttf
p712
sg20
g21
sbag1
(g8
g3
NtRp713
(dp714
g11
g28
sg13
S'Franklin Gothic Demi'
p715
sg15
I600
sg16
g12
sg17
g12
sg18
Vc:\u005cwindows\u005cfonts\u005cfradmit.ttf
p716
sg20
g21
sbag1
(g8
g3
NtRp717
(dp718
g11
g28
sg13
S'Linux Libertine G'
p719
sg15
I700
sg16
g12
sg17
g12
sg18
VC:\u005cWindows\u005cFonts\u005cLinLibertine_RBI_G.ttf
p720
sg20
g21
sbag1
(g8
g3
NtRp721
(dp722
g11
g12
sg13
S'Wingdings 2'
p723
sg15
I400
sg16
g12
sg17
g12
sg18
VC:\u005cWindows\u005cFonts\u005cWINGDNG2.TTF
p724
sg20
g21
sbag1
(g8
g3
NtRp725
(dp726
g11
g12
sg13
S'Utsaah'
p727
sg15
I400
sg16
g12
sg17
g12
sg18
Vc:\u005cwindows\u005cfonts\u005cutsaah.ttf
p728
sg20
g21
sbag1
(g8
g3
NtRp729
(dp730
g11
g12
sg13
S'Microsoft YaHei'
p731
sg15
I700
sg16
g12
sg17
g12
sg18
Vc:\u005cwindows\u005cfonts\u005cmsyhbd.ttf
p732
sg20
g21
sbag1
(g8
g3
NtRp733
(dp734
g11
g28
sg13
S'Georgia'
p735
sg15
I700
sg16
g12
sg17
g12
sg18
Vc:\u005cwindows\u005cfonts\u005cgeorgiaz.ttf
p736
sg20
g21
sbag1
(g8
g3
NtRp737
(dp738
g11
g28
sg13
S'Bodoni MT'
p739
sg15
I900
sg16
g12
sg17
g12
sg18
VC:\u005cWindows\u005cFonts\u005cBOD_BLAI.TTF
p740
sg20
g21
sbag1
(g8
g3
NtRp741
(dp742
g11
g28
sg13
S'Lucida Bright'
p743
sg15
I400
sg16
g12
sg17
g12
sg18
VC:\u005cWindows\u005cFonts\u005cLBRITEI.TTF
p744
sg20
g21
sbag1
(g8
g3
NtRp745
(dp746
g11
g12
sg13
S'Sylfaen'
p747
sg15
I400
sg16
g12
sg17
g12
sg18
Vc:\u005cwindows\u005cfonts\u005csylfaen.ttf
p748
sg20
g21
sbag1
(g8
g3
NtRp749
(dp750
g11
g28
sg13
S'Liberation Mono'
p751
sg15
I400
sg16
g12
sg17
g12
sg18
VC:\u005cWindows\u005cFonts\u005cLiberationMono-Italic.ttf
p752
sg20
g21
sbag1
(g8
g3
NtRp753
(dp754
g11
g12
sg13
S'Rockwell Condensed'
p755
sg15
I700
sg16
g251
sg17
g12
sg18
Vc:\u005cwindows\u005cfonts\u005croccb___.ttf
p756
sg20
g21
sbag1
(g8
g3
NtRp757
(dp758
g11
g12
sg13
S'Lucida Sans'
p759
sg15
I700
sg16
g12
sg17
g12
sg18
VC:\u005cWindows\u005cFonts\u005cLSANSD.TTF
p760
sg20
g21
sbag1
(g8
g3
NtRp761
(dp762
g11
g12
sg13
S'Lucida Sans'
p763
sg15
I400
sg16
g12
sg17
g12
sg18
VC:\u005cWindows\u005cFonts\u005cLSANS.TTF
p764
sg20
g21
sbag1
(g8
g3
NtRp765
(dp766
g11
g28
sg13
S'Calibri'
p767
sg15
I700
sg16
g12
sg17
g12
sg18
VC:\u005cWindows\u005cFonts\u005ccalibriz.ttf
p768
sg20
g21
sbag1
(g8
g3
NtRp769
(dp770
g11
g12
sg13
S'Aharoni'
p771
sg15
I700
sg16
g12
sg17
g12
sg18
Vc:\u005cwindows\u005cfonts\u005cahronbd.ttf
p772
sg20
g21
sbag1
(g8
g3
NtRp773
(dp774
g11
g28
sg13
S'JasmineUPC'
p775
sg15
I700
sg16
g12
sg17
g12
sg18
VC:\u005cWindows\u005cFonts\u005cupcjbi.ttf
p776
sg20
g21
sbag1
(g8
g3
NtRp777
(dp778
g11
g12
sg13
S'Eras Medium ITC'
p779
sg15
I500
sg16
g12
sg17
g12
sg18
VC:\u005cWindows\u005cFonts\u005cERASMD.TTF
p780
sg20
g21
sbag1
(g8
g3
NtRp781
(dp782
g11
g28
sg13
S'Century Schoolbook'
p783
sg15
I400
sg16
g12
sg17
g12
sg18
Vc:\u005cwindows\u005cfonts\u005cschlbki.ttf
p784
sg20
g21
sbag1
(g8
g3
NtRp785
(dp786
g11
g28
sg13
S'Gentium Basic'
p787
sg15
I700
sg16
g12
sg17
g12
sg18
Vc:\u005cwindows\u005cfonts\u005cgenbasbi.ttf
p788
sg20
g21
sbag1
(g8
g3
NtRp789
(dp790
g11
g12
sg13
S'EucrosiaUPC'
p791
sg15
I400
sg16
g12
sg17
g12
sg18
Vc:\u005cwindows\u005cfonts\u005cupcel.ttf
p792
sg20
g21
sbag1
(g8
g3
NtRp793
(dp794
g11
g12
sg13
S'Book Antiqua'
p795
sg15
I400
sg16
g12
sg17
g12
sg18
VC:\u005cWindows\u005cFonts\u005cBKANT.TTF
p796
sg20
g21
sbag1
(g8
g3
NtRp797
(dp798
g11
g12
sg13
S'Angsana New'
p799
sg15
I700
sg16
g12
sg17
g12
sg18
VC:\u005cWindows\u005cFonts\u005cangsab.ttf
p800
sg20
g21
sbag1
(g8
g3
NtRp801
(dp802
g11
g12
sg13
S'LilyUPC'
p803
sg15
I700
sg16
g12
sg17
g12
sg18
Vc:\u005cwindows\u005cfonts\u005cupclb.ttf
p804
sg20
g21
sbag1
(g8
g3
NtRp805
(dp806
g11
g12
sg13
S'Gentium Book Basic'
p807
sg15
I400
sg16
g12
sg17
g12
sg18
Vc:\u005cwindows\u005cfonts\u005cgenbkbasr.ttf
p808
sg20
g21
sbag1
(g8
g3
NtRp809
(dp810
g11
g12
sg13
S'Arial'
p811
sg15
I400
sg16
g251
sg17
g12
sg18
VC:\u005cWindows\u005cFonts\u005cARIALN.TTF
p812
sg20
g21
sbag1
(g8
g3
NtRp813
(dp814
g11
g12
sg13
S'Onyx'
p815
sg15
I400
sg16
g12
sg17
g12
sg18
Vc:\u005cwindows\u005cfonts\u005conyx.ttf
p816
sg20
g21
sbag1
(g8
g3
NtRp817
(dp818
g11
g28
sg13
S'AngsanaUPC'
p819
sg15
I400
sg16
g12
sg17
g12
sg18
Vc:\u005cwindows\u005cfonts\u005cangsaui.ttf
p820
sg20
g21
sbag1
(g8
g3
NtRp821
(dp822
g11
g12
sg13
S'Franklin Gothic Demi Cond'
p823
sg15
I600
sg16
g251
sg17
g12
sg18
VC:\u005cWindows\u005cFonts\u005cFRADMCN.TTF
p824
sg20
g21
sbag1
(g8
g3
NtRp825
(dp826
g11
g28
sg13
S'Book Antiqua'
p827
sg15
I700
sg16
g12
sg17
g12
sg18
VC:\u005cWindows\u005cFonts\u005cANTQUABI.TTF
p828
sg20
g21
sbag1
(g8
g3
NtRp829
(dp830
g11
g45
sg13
S'DejaVu Sans'
p831
sg15
I400
sg16
g12
sg17
g12
sg18
Vc:\u005cwindows\u005cfonts\u005cdejavusans-oblique.ttf
p832
sg20
g21
sbag1
(g8
g3
NtRp833
(dp834
g11
g28
sg13
S'Times New Roman'
p835
sg15
I700
sg16
g12
sg17
g12
sg18
Vc:\u005cwindows\u005cfonts\u005ctimesbi.ttf
p836
sg20
g21
sbag1
(g8
g3
NtRp837
(dp838
g11
g28
sg13
S'Century Schoolbook'
p839
sg15
I700
sg16
g12
sg17
g12
sg18
VC:\u005cWindows\u005cFonts\u005cSCHLBKBI.TTF
p840
sg20
g21
sbag1
(g8
g3
NtRp841
(dp842
g11
g12
sg13
S'Bernard MT Condensed'
p843
sg15
I400
sg16
g251
sg17
g12
sg18
VC:\u005cWindows\u005cFonts\u005cBERNHC.TTF
p844
sg20
g21
sbag1
(g8
g3
NtRp845
(dp846
g11
g28
sg13
S'EucrosiaUPC'
p847
sg15
I700
sg16
g12
sg17
g12
sg18
VC:\u005cWindows\u005cFonts\u005cupcebi.ttf
p848
sg20
g21
sbag1
(g8
g3
NtRp849
(dp850
g11
g28
sg13
S'Bookman Old Style'
p851
sg15
I400
sg16
g12
sg17
g12
sg18
Vc:\u005cwindows\u005cfonts\u005cbookosi.ttf
p852
sg20
g21
sbag1
(g8
g3
NtRp853
(dp854
g11
g12
sg13
S'Lucida Fax'
p855
sg15
I700
sg16
g12
sg17
g12
sg18
VC:\u005cWindows\u005cFonts\u005cLFAXD.TTF
p856
sg20
g21
sbag1
(g8
g3
NtRp857
(dp858
g11
g12
sg13
S'Gloucester MT Extra Condensed'
p859
sg15
I400
sg16
g251
sg17
g12
sg18
Vc:\u005cwindows\u005cfonts\u005cglecb.ttf
p860
sg20
g21
sbag1
(g8
g3
NtRp861
(dp862
g11
g12
sg13
S'Chiller'
p863
sg15
I400
sg16
g12
sg17
g12
sg18
VC:\u005cWindows\u005cFonts\u005cCHILLER.TTF
p864
sg20
g21
sbag1
(g8
g3
NtRp865
(dp866
g11
g12
sg13
S'Gill Sans Ultra Bold Condensed'
p867
sg15
I700
sg16
g251
sg17
g12
sg18
VC:\u005cWindows\u005cFonts\u005cGILLUBCD.TTF
p868
sg20
g21
sbag1
(g8
g3
NtRp869
(dp870
g11
g28
sg13
S'FreesiaUPC'
p871
sg15
I400
sg16
g12
sg17
g12
sg18
Vc:\u005cwindows\u005cfonts\u005cupcfi.ttf
p872
sg20
g21
sbag1
(g8
g3
NtRp873
(dp874
g11
g12
sg13
S'Franklin Gothic Medium'
p875
sg15
I500
sg16
g12
sg17
g12
sg18
VC:\u005cWindows\u005cFonts\u005cframd.ttf
p876
sg20
g21
sbag1
(g8
g3
NtRp877
(dp878
g11
g28
sg13
S'Lucida Sans'
p879
sg15
I400
sg16
g12
sg17
g12
sg18
VC:\u005cWindows\u005cFonts\u005cLSANSI.TTF
p880
sg20
g21
sbag1
(g8
g3
NtRp881
(dp882
g11
g12
sg13
S'Microsoft Tai Le'
p883
sg15
I400
sg16
g12
sg17
g12
sg18
Vc:\u005cwindows\u005cfonts\u005ctaile.ttf
p884
sg20
g21
sbag1
(g8
g3
NtRp885
(dp886
g11
g28
sg13
S'KodchiangUPC'
p887
sg15
I700
sg16
g12
sg17
g12
sg18
VC:\u005cWindows\u005cFonts\u005cupckbi.ttf
p888
sg20
g21
sbag1
(g8
g3
NtRp889
(dp890
g11
g28
sg13
S'Linux Libertine G'
p891
sg15
I400
sg16
g12
sg17
g12
sg18
Vc:\u005cwindows\u005cfonts\u005clinlibertine_ri_g.ttf
p892
sg20
g21
sbag1
(g8
g3
NtRp893
(dp894
g11
g28
sg13
S'Source Sans Pro'
p895
sg15
I700
sg16
g12
sg17
g12
sg18
Vc:\u005cwindows\u005cfonts\u005csourcesanspro-semiboldit.ttf
p896
sg20
g21
sbag1
(g8
g3
NtRp897
(dp898
g11
g12
sg13
S'Calibri'
p899
sg15
I400
sg16
g12
sg17
g12
sg18
Vc:\u005cwindows\u005cfonts\u005ccalibri.ttf
p900
sg20
g21
sbag1
(g8
g3
NtRp901
(dp902
g11
g12
sg13
S'Felix Titling'
p903
sg15
I400
sg16
g12
sg17
g12
sg18
VC:\u005cWindows\u005cFonts\u005cFELIXTI.TTF
p904
sg20
g21
sbag1
(g8
g3
NtRp905
(dp906
g11
g28
sg13
S'Gentium Book Basic'
p907
sg15
I400
sg16
g12
sg17
g12
sg18
Vc:\u005cwindows\u005cfonts\u005cgenbkbasi.ttf
p908
sg20
g21
sbag1
(g8
g3
NtRp909
(dp910
g11
g28
sg13
S'Source Sans Pro'
p911
sg15
I400
sg16
g12
sg17
g12
sg18
VC:\u005cWindows\u005cFonts\u005cSourceSansPro-It.ttf
p912
sg20
g21
sbag1
(g8
g3
NtRp913
(dp914
g11
g12
sg13
S'Vladimir Script'
p915
sg15
I400
sg16
g12
sg17
g12
sg18
VC:\u005cWindows\u005cFonts\u005cVLADIMIR.TTF
p916
sg20
g21
sbag1
(g8
g3
NtRp917
(dp918
g11
g12
sg13
S'Impact'
p919
sg15
I400
sg16
g12
sg17
g12
sg18
VC:\u005cWindows\u005cFonts\u005cimpact.ttf
p920
sg20
g21
sbag1
(g8
g3
NtRp921
(dp922
g11
g12
sg13
S'Centaur'
p923
sg15
I400
sg16
g12
sg17
g12
sg18
Vc:\u005cwindows\u005cfonts\u005ccentaur.ttf
p924
sg20
g21
sbag1
(g8
g3
NtRp925
(dp926
g11
g12
sg13
S'IrisUPC'
p927
sg15
I400
sg16
g12
sg17
g12
sg18
Vc:\u005cwindows\u005cfonts\u005cupcil.ttf
p928
sg20
g21
sbag1
(g8
g3
NtRp929
(dp930
g11
g12
sg13
S'Broadway'
p931
sg15
I400
sg16
g12
sg17
g12
sg18
VC:\u005cWindows\u005cFonts\u005cBROADW.TTF
p932
sg20
g21
sbag1
(g8
g3
NtRp933
(dp934
g11
g12
sg13
S'Liberation Sans'
p935
sg15
I400
sg16
g12
sg17
g12
sg18
Vc:\u005cwindows\u005cfonts\u005cliberationsans-regular.ttf
p936
sg20
g21
sbag1
(g8
g3
NtRp937
(dp938
g11
g12
sg13
S'Gill Sans MT'
p939
sg15
I700
sg16
g12
sg17
g12
sg18
VC:\u005cWindows\u005cFonts\u005cGILB____.TTF
p940
sg20
g21
sbag1
(g8
g3
NtRp941
(dp942
g11
g12
sg13
S'OpenSymbol'
p943
sg15
I400
sg16
g12
sg17
g12
sg18
VC:\u005cWindows\u005cFonts\u005copens___.ttf
p944
sg20
g21
sbag1
(g8
g3
NtRp945
(dp946
g11
g28
sg13
S'Calisto MT'
p947
sg15
I400
sg16
g12
sg17
g12
sg18
VC:\u005cWindows\u005cFonts\u005cCALISTI.TTF
p948
sg20
g21
sbag1
(g8
g3
NtRp949
(dp950
g11
g12
sg13
S'Gentium Basic'
p951
sg15
I700
sg16
g12
sg17
g12
sg18
Vc:\u005cwindows\u005cfonts\u005cgenbasb.ttf
p952
sg20
g21
sbag1
(g8
g3
NtRp953
(dp954
g11
g12
sg13
S'Latha'
p955
sg15
I400
sg16
g12
sg17
g12
sg18
Vc:\u005cwindows\u005cfonts\u005clatha.ttf
p956
sg20
g21
sbag1
(g8
g3
NtRp957
(dp958
g11
g28
sg13
S'Cambria'
p959
sg15
I400
sg16
g12
sg17
g12
sg18
Vc:\u005cwindows\u005cfonts\u005ccambriai.ttf
p960
sg20
g21
sbag1
(g8
g3
NtRp961
(dp962
g11
g12
sg13
S'Mangal'
p963
sg15
I700
sg16
g12
sg17
g12
sg18
VC:\u005cWindows\u005cFonts\u005cmangalb.ttf
p964
sg20
g21
sbag1
(g8
g3
NtRp965
(dp966
g11
g12
sg13
S'Kartika'
p967
sg15
I400
sg16
g12
sg17
g12
sg18
VC:\u005cWindows\u005cFonts\u005ckartika.ttf
p968
sg20
g21
sbag1
(g8
g3
NtRp969
(dp970
g11
g12
sg13
S'Vani'
p971
sg15
I400
sg16
g12
sg17
g12
sg18
Vc:\u005cwindows\u005cfonts\u005cvani.ttf
p972
sg20
g21
sbag1
(g8
g3
NtRp973
(dp974
g11
g12
sg13
S'DejaVu Serif'
p975
sg15
I400
sg16
g251
sg17
g12
sg18
Vc:\u005cwindows\u005cfonts\u005cdejavuserifcondensed.ttf
p976
sg20
g21
sbag1
(g8
g3
NtRp977
(dp978
g11
g12
sg13
S'Arial Rounded MT Bold'
p979
sg15
I700
sg16
g12
sg17
g12
sg18
Vc:\u005cwindows\u005cfonts\u005carlrdbd.ttf
p980
sg20
g21
sbag1
(g8
g3
NtRp981
(dp982
g11
g12
sg13
S'DilleniaUPC'
p983
sg15
I400
sg16
g12
sg17
g12
sg18
Vc:\u005cwindows\u005cfonts\u005cupcdl.ttf
p984
sg20
g21
sbag1
(g8
g3
NtRp985
(dp986
g11
g28
sg13
S'Calisto MT'
p987
sg15
I700
sg16
g12
sg17
g12
sg18
VC:\u005cWindows\u005cFonts\u005cCALISTBI.TTF
p988
sg20
g21
sbag1
(g8
g3
NtRp989
(dp990
g11
g12
sg13
S'Bernard MT Condensed'
p991
sg15
I400
sg16
g251
sg17
g12
sg18
Vc:\u005cwindows\u005cfonts\u005cbernhc.ttf
p992
sg20
g21
sbag1
(g8
g3
NtRp993
(dp994
g11
g28
sg13
S'Gentium Basic'
p995
sg15
I400
sg16
g12
sg17
g12
sg18
VC:\u005cWindows\u005cFonts\u005cGenBasI.ttf
p996
sg20
g21
sbag1
(g8
g3
NtRp997
(dp998
g11
g12
sg13
S'Monotype Corsiva'
p999
sg15
I400
sg16
g12
sg17
g12
sg18
VC:\u005cWindows\u005cFonts\u005cMTCORSVA.TTF
p1000
sg20
g21
sbag1
(g8
g3
NtRp1001
(dp1002
g11
g12
sg13
S'Lucida Sans Unicode'
p1003
sg15
I400
sg16
g12
sg17
g12
sg18
VC:\u005cWindows\u005cFonts\u005cl_10646.ttf
p1004
sg20
g21
sbag1
(g8
g3
NtRp1005
(dp1006
g11
g12
sg13
S'Castellar'
p1007
sg15
I400
sg16
g12
sg17
g12
sg18
Vc:\u005cwindows\u005cfonts\u005ccastelar.ttf
p1008
sg20
g21
sbag1
(g8
g3
NtRp1009
(dp1010
g11
g12
sg13
S'Magneto'
p1011
sg15
I700
sg16
g12
sg17
g12
sg18
Vc:\u005cwindows\u005cfonts\u005cmagnetob.ttf
p1012
sg20
g21
sbag1
(g8
g3
NtRp1013
(dp1014
g11
g12
sg13
S'Script MT Bold'
p1015
sg15
I700
sg16
g12
sg17
g12
sg18
VC:\u005cWindows\u005cFonts\u005cSCRIPTBL.TTF
p1016
sg20
g21
sbag1
(g8
g3
NtRp1017
(dp1018
g11
g12
sg13
S'Berlin Sans FB Demi'
p1019
sg15
I700
sg16
g12
sg17
g12
sg18
VC:\u005cWindows\u005cFonts\u005cBRLNSDB.TTF
p1020
sg20
g21
sbag1
(g8
g3
NtRp1021
(dp1022
g11
g45
sg13
S'DejaVu Sans Mono'
p1023
sg15
I400
sg16
g12
sg17
g12
sg18
VC:\u005cWindows\u005cFonts\u005cDejaVuSansMono-Oblique.ttf
p1024
sg20
g21
sbag1
(g8
g3
NtRp1025
(dp1026
g11
g12
sg13
S'Arial Unicode MS'
p1027
sg15
I400
sg16
g12
sg17
g12
sg18
Vc:\u005cwindows\u005cfonts\u005carialuni.ttf
p1028
sg20
g21
sbag1
(g8
g3
NtRp1029
(dp1030
g11
g28
sg13
S'Aparajita'
p1031
sg15
I700
sg16
g12
sg17
g12
sg18
Vc:\u005cwindows\u005cfonts\u005caparajbi.ttf
p1032
sg20
g21
sbag1
(g8
g3
NtRp1033
(dp1034
g11
g12
sg13
S'Ebrima'
p1035
sg15
I700
sg16
g12
sg17
g12
sg18
Vc:\u005cwindows\u005cfonts\u005cebrimabd.ttf
p1036
sg20
g21
sbag1
(g8
g3
NtRp1037
(dp1038
g11
g12
sg13
S'Segoe Print'
p1039
sg15
I400
sg16
g12
sg17
g12
sg18
VC:\u005cWindows\u005cFonts\u005csegoepr.ttf
p1040
sg20
g21
sbag1
(g8
g3
NtRp1041
(dp1042
g11
g12
sg13
S'Microsoft Sans Serif'
p1043
sg15
I400
sg16
g12
sg17
g12
sg18
VC:\u005cWindows\u005cFonts\u005cmicross.ttf
p1044
sg20
g21
sbag1
(g8
g3
NtRp1045
(dp1046
g11
g12
sg13
S'Gill Sans Ultra Bold Condensed'
p1047
sg15
I700
sg16
g251
sg17
g12
sg18
Vc:\u005cwindows\u005cfonts\u005cgillubcd.ttf
p1048
sg20
g21
sbag1
(g8
g3
NtRp1049
(dp1050
g11
g12
sg13
S'Wingdings 3'
p1051
sg15
I400
sg16
g12
sg17
g12
sg18
VC:\u005cWindows\u005cFonts\u005cWINGDNG3.TTF
p1052
sg20
g21
sbag1
(g8
g3
NtRp1053
(dp1054
g11
g28
sg13
S'Kokila'
p1055
sg15
I700
sg16
g12
sg17
g12
sg18
VC:\u005cWindows\u005cFonts\u005ckokilabi.ttf
p1056
sg20
g21
sbag1
(g8
g3
NtRp1057
(dp1058
g11
g28
sg13
S'Gill Sans MT'
p1059
sg15
I700
sg16
g12
sg17
g12
sg18
VC:\u005cWindows\u005cFonts\u005cGILBI___.TTF
p1060
sg20
g21
sbag1
(g8
g3
NtRp1061
(dp1062
g11
g12
sg13
S'Palace Script MT'
p1063
sg15
I400
sg16
g12
sg17
g12
sg18
VC:\u005cWindows\u005cFonts\u005cPALSCRI.TTF
p1064
sg20
g21
sbag1
(g8
g3
NtRp1065
(dp1066
g11
g12
sg13
S'Segoe Print'
p1067
sg15
I700
sg16
g12
sg17
g12
sg18
VC:\u005cWindows\u005cFonts\u005csegoeprb.ttf
p1068
sg20
g21
sbag1
(g8
g3
NtRp1069
(dp1070
g11
g12
sg13
S'FreesiaUPC'
p1071
sg15
I400
sg16
g12
sg17
g12
sg18
VC:\u005cWindows\u005cFonts\u005cupcfl.ttf
p1072
sg20
g21
sbag1
(g8
g3
NtRp1073
(dp1074
g11
g28
sg13
S'Perpetua'
p1075
sg15
I400
sg16
g12
sg17
g12
sg18
Vc:\u005cwindows\u005cfonts\u005cperi____.ttf
p1076
sg20
g21
sbag1
(g8
g3
NtRp1077
(dp1078
g11
g12
sg13
S'Miriam Fixed'
p1079
sg15
I400
sg16
g12
sg17
g12
sg18
Vc:\u005cwindows\u005cfonts\u005cmriamc.ttf
p1080
sg20
g21
sbag1
(g8
g3
NtRp1081
(dp1082
g11
g28
sg13
S'IrisUPC'
p1083
sg15
I400
sg16
g12
sg17
g12
sg18
Vc:\u005cwindows\u005cfonts\u005cupcii.ttf
p1084
sg20
g21
sbag1
(g8
g3
NtRp1085
(dp1086
g11
g12
sg13
S'Copperplate Gothic Light'
p1087
sg15
I200
sg16
g12
sg17
g12
sg18
Vc:\u005cwindows\u005cfonts\u005ccoprgtl.ttf
p1088
sg20
g21
sbag1
(g8
g3
NtRp1089
(dp1090
g11
g28
sg13
S'Tw Cen MT'
p1091
sg15
I400
sg16
g12
sg17
g12
sg18
Vc:\u005cwindows\u005cfonts\u005ctcmi____.ttf
p1092
sg20
g21
sbag1
(g8
g3
NtRp1093
(dp1094
g11
g28
sg13
S'Cordia New'
p1095
sg15
I700
sg16
g12
sg17
g12
sg18
VC:\u005cWindows\u005cFonts\u005ccordiaz.ttf
p1096
sg20
g21
sbag1
(g8
g3
NtRp1097
(dp1098
g11
g12
sg13
S'Times New Roman'
p1099
sg15
I500
sg16
g12
sg17
g12
sg18
Vc:\u005cwindows\u005cfonts\u005ctimes.ttf
p1100
sg20
g21
sbag1
(g8
g3
NtRp1101
(dp1102
g11
g12
sg13
S'Wingdings 2'
p1103
sg15
I400
sg16
g12
sg17
g12
sg18
Vc:\u005cwindows\u005cfonts\u005cwingdng2.ttf
p1104
sg20
g21
sbag1
(g8
g3
NtRp1105
(dp1106
g11
g12
sg13
S'Consolas'
p1107
sg15
I700
sg16
g12
sg17
g12
sg18
Vc:\u005cwindows\u005cfonts\u005cconsolab.ttf
p1108
sg20
g21
sbag1
(g8
g3
NtRp1109
(dp1110
g11
g12
sg13
S'Berlin Sans FB'
p1111
sg15
I400
sg16
g12
sg17
g12
sg18
Vc:\u005cwindows\u005cfonts\u005cbrlnsr.ttf
p1112
sg20
g21
sbag1
(g8
g3
NtRp1113
(dp1114
g11
g12
sg13
S'DejaVu Sans'
p1115
sg15
I400
sg16
g12
sg17
g12
sg18
Vc:\u005cwindows\u005cfonts\u005cdejavusans.ttf
p1116
sg20
g21
sbag1
(g8
g3
NtRp1117
(dp1118
g11
g12
sg13
S'Vijaya'
p1119
sg15
I700
sg16
g12
sg17
g12
sg18
Vc:\u005cwindows\u005cfonts\u005cvijayab.ttf
p1120
sg20
g21
sbag1
(g8
g3
NtRp1121
(dp1122
g11
g45
sg13
S'DejaVu Sans'
p1123
sg15
I400
sg16
g251
sg17
g12
sg18
VC:\u005cWindows\u005cFonts\u005cDejaVuSansCondensed-Oblique.ttf
p1124
sg20
g21
sbag1
(g8
g3
NtRp1125
(dp1126
g11
g28
sg13
S'Courier New'
p1127
sg15
I400
sg16
g12
sg17
g12
sg18
Vc:\u005cwindows\u005cfonts\u005ccouri.ttf
p1128
sg20
g21
sbag1
(g8
g3
NtRp1129
(dp1130
g11
g12
sg13
S'Shruti'
p1131
sg15
I700
sg16
g12
sg17
g12
sg18
VC:\u005cWindows\u005cFonts\u005cshrutib.ttf
p1132
sg20
g21
sbag1
(g8
g3
NtRp1133
(dp1134
g11
g28
sg13
S'CordiaUPC'
p1135
sg15
I700
sg16
g12
sg17
g12
sg18
Vc:\u005cwindows\u005cfonts\u005ccordiauz.ttf
p1136
sg20
g21
sbag1
(g8
g3
NtRp1137
(dp1138
g11
g12
sg13
S'Leelawadee'
p1139
sg15
I400
sg16
g12
sg17
g12
sg18
Vc:\u005cwindows\u005cfonts\u005cleelawad.ttf
p1140
sg20
g21
sbag1
(g8
g3
NtRp1141
(dp1142
g11
g12
sg13
S'Arial'
p1143
sg15
I400
sg16
g12
sg17
g12
sg18
Vc:\u005cwindows\u005cfonts\u005carial.ttf
p1144
sg20
g21
sbag1
(g8
g3
NtRp1145
(dp1146
g11
g28
sg13
S'Bodoni MT'
p1147
sg15
I400
sg16
g12
sg17
g12
sg18
Vc:\u005cwindows\u005cfonts\u005cbod_i.ttf
p1148
sg20
g21
sbag1
(g8
g3
NtRp1149
(dp1150
g11
g12
sg13
S'Shonar Bangla'
p1151
sg15
I700
sg16
g12
sg17
g12
sg18
Vc:\u005cwindows\u005cfonts\u005cshonarb.ttf
p1152
sg20
g21
sbag1
(g8
g3
NtRp1153
(dp1154
g11
g28
sg13
S'Consolas'
p1155
sg15
I400
sg16
g12
sg17
g12
sg18
VC:\u005cWindows\u005cFonts\u005cconsolai.ttf
p1156
sg20
g21
sbag1
(g8
g3
NtRp1157
(dp1158
g11
g12
sg13
S'Engravers MT'
p1159
sg15
I400
sg16
g12
sg17
g12
sg18
Vc:\u005cwindows\u005cfonts\u005cengr.ttf
p1160
sg20
g21
sbag1
(g8
g3
NtRp1161
(dp1162
g11
g28
sg13
S'Lucida Fax'
p1163
sg15
I700
sg16
g12
sg17
g12
sg18
VC:\u005cWindows\u005cFonts\u005cLFAXDI.TTF
p1164
sg20
g21
sbag1
(g8
g3
NtRp1165
(dp1166
g11
g12
sg13
S'Century Gothic'
p1167
sg15
I400
sg16
g12
sg17
g12
sg18
VC:\u005cWindows\u005cFonts\u005cGOTHIC.TTF
p1168
sg20
g21
sbag1
(g8
g3
NtRp1169
(dp1170
g11
g12
sg13
S'Bauhaus 93'
p1171
sg15
I400
sg16
g12
sg17
g12
sg18
VC:\u005cWindows\u005cFonts\u005cBAUHS93.TTF
p1172
sg20
g21
sbag1
(g8
g3
NtRp1173
(dp1174
g11
g12
sg13
S'Haettenschweiler'
p1175
sg15
I400
sg16
g12
sg17
g12
sg18
VC:\u005cWindows\u005cFonts\u005cHATTEN.TTF
p1176
sg20
g21
sbag1
(g8
g3
NtRp1177
(dp1178
g11
g28
sg13
S'Book Antiqua'
p1179
sg15
I400
sg16
g12
sg17
g12
sg18
Vc:\u005cwindows\u005cfonts\u005cantquai.ttf
p1180
sg20
g21
sbag1
(g8
g3
NtRp1181
(dp1182
g11
g12
sg13
S'MS Reference Sans Serif'
p1183
sg15
I400
sg16
g12
sg17
g12
sg18
Vc:\u005cwindows\u005cfonts\u005crefsan.ttf
p1184
sg20
g21
sbag1
(g8
g3
NtRp1185
(dp1186
g11
g12
sg13
S'Bookman Old Style'
p1187
sg15
I700
sg16
g12
sg17
g12
sg18
Vc:\u005cwindows\u005cfonts\u005cbookosb.ttf
p1188
sg20
g21
sbag1
(g8
g3
NtRp1189
(dp1190
g11
g12
sg13
S'BrowalliaUPC'
p1191
sg15
I700
sg16
g12
sg17
g12
sg18
Vc:\u005cwindows\u005cfonts\u005cbrowaub.ttf
p1192
sg20
g21
sbag1
(g8
g3
NtRp1193
(dp1194
g11
g12
sg13
S'MoolBoran'
p1195
sg15
I400
sg16
g12
sg17
g12
sg18
VC:\u005cWindows\u005cFonts\u005cmoolbor.ttf
p1196
sg20
g21
sbag1
(g8
g3
NtRp1197
(dp1198
g11
g28
sg13
S'DilleniaUPC'
p1199
sg15
I700
sg16
g12
sg17
g12
sg18
Vc:\u005cwindows\u005cfonts\u005cupcdbi.ttf
p1200
sg20
g21
sbag1
(g8
g3
NtRp1201
(dp1202
g11
g12
sg13
S'Felix Titling'
p1203
sg15
I400
sg16
g12
sg17
g12
sg18
Vc:\u005cwindows\u005cfonts\u005cfelixti.ttf
p1204
sg20
g21
sbag1
(g8
g3
NtRp1205
(dp1206
g11
g28
sg13
S'Kokila'
p1207
sg15
I400
sg16
g12
sg17
g12
sg18
VC:\u005cWindows\u005cFonts\u005ckokilai.ttf
p1208
sg20
g21
sbag1
(g8
g3
NtRp1209
(dp1210
g11
g28
sg13
S'Palatino Linotype'
p1211
sg15
I400
sg16
g12
sg17
g12
sg18
Vc:\u005cwindows\u005cfonts\u005cpalai.ttf
p1212
sg20
g21
sbag1
(g8
g3
NtRp1213
(dp1214
g11
g28
sg13
S'Franklin Gothic Heavy'
p1215
sg15
I800
sg16
g12
sg17
g12
sg18
Vc:\u005cwindows\u005cfonts\u005cfrahvit.ttf
p1216
sg20
g21
sbag1
(g8
g3
NtRp1217
(dp1218
g11
g12
sg13
S'Liberation Sans Narrow'
p1219
sg15
I400
sg16
g251
sg17
g12
sg18
VC:\u005cWindows\u005cFonts\u005cLiberationSansNarrow-Regular.ttf
p1220
sg20
g21
sbag1
(g8
g3
NtRp1221
(dp1222
g11
g12
sg13
S'Berlin Sans FB'
p1223
sg15
I400
sg16
g12
sg17
g12
sg18
VC:\u005cWindows\u005cFonts\u005cBRLNSR.TTF
p1224
sg20
g21
sbag1
(g8
g3
NtRp1225
(dp1226
g11
g12
sg13
S'Carlito'
p1227
sg15
I700
sg16
g12
sg17
g12
sg18
Vc:\u005cwindows\u005cfonts\u005ccarlito-bold.ttf
p1228
sg20
g21
sbag1
(g8
g3
NtRp1229
(dp1230
g11
g12
sg13
S'Calibri'
p1231
sg15
I700
sg16
g12
sg17
g12
sg18
Vc:\u005cwindows\u005cfonts\u005ccalibrib.ttf
p1232
sg20
g21
sbag1
(g8
g3
NtRp1233
(dp1234
g11
g12
sg13
S'Verdana'
p1235
sg15
I400
sg16
g12
sg17
g12
sg18
VC:\u005cWindows\u005cFonts\u005cverdana.ttf
p1236
sg20
g21
sbag1
(g8
g3
NtRp1237
(dp1238
g11
g12
sg13
S'JasmineUPC'
p1239
sg15
I700
sg16
g12
sg17
g12
sg18
Vc:\u005cwindows\u005cfonts\u005cupcjb.ttf
p1240
sg20
g21
sbag1
(g8
g3
NtRp1241
(dp1242
g11
g12
sg13
S'Open Sans'
p1243
sg15
I400
sg16
g12
sg17
g12
sg18
VC:\u005cWindows\u005cFonts\u005cOpenSans-Regular.ttf
p1244
sg20
g21
sbag1
(g8
g3
NtRp1245
(dp1246
g11
g12
sg13
S'Colonna MT'
p1247
sg15
I400
sg16
g12
sg17
g12
sg18
VC:\u005cWindows\u005cFonts\u005cCOLONNA.TTF
p1248
sg20
g21
sbag1
(g8
g3
NtRp1249
(dp1250
g11
g12
sg13
S'David'
p1251
sg15
I700
sg16
g12
sg17
g12
sg18
Vc:\u005cwindows\u005cfonts\u005cdavidbd.ttf
p1252
sg20
g21
sbag1
(g8
g3
NtRp1253
(dp1254
g11
g28
sg13
S'Source Sans Pro'
p1255
sg15
I200
sg16
g12
sg17
g12
sg18
Vc:\u005cwindows\u005cfonts\u005csourcesanspro-lightit.ttf
p1256
sg20
g21
sbag1
(g8
g3
NtRp1257
(dp1258
g11
g28
sg13
S'Constantia'
p1259
sg15
I400
sg16
g12
sg17
g12
sg18
VC:\u005cWindows\u005cFonts\u005cconstani.ttf
p1260
sg20
g21
sbag1
(g8
g3
NtRp1261
(dp1262
g11
g45
sg13
S'DejaVu Sans'
p1263
sg15
I700
sg16
g251
sg17
g12
sg18
Vc:\u005cwindows\u005cfonts\u005cdejavusanscondensed-boldoblique.ttf
p1264
sg20
g21
sbag1
(g8
g3
NtRp1265
(dp1266
g11
g12
sg13
S'Century Schoolbook'
p1267
sg15
I700
sg16
g12
sg17
g12
sg18
Vc:\u005cwindows\u005cfonts\u005cschlbkb.ttf
p1268
sg20
g21
sbag1
(g8
g3
NtRp1269
(dp1270
g11
g12
sg13
S'Chiller'
p1271
sg15
I400
sg16
g12
sg17
g12
sg18
Vc:\u005cwindows\u005cfonts\u005cchiller.ttf
p1272
sg20
g21
sbag1
(g8
g3
NtRp1273
(dp1274
g11
g12
sg13
S'Book Antiqua'
p1275
sg15
I700
sg16
g12
sg17
g12
sg18
VC:\u005cWindows\u005cFonts\u005cANTQUAB.TTF
p1276
sg20
g21
sbag1
(g8
g3
NtRp1277
(dp1278
g11
g12
sg13
S'Constantia'
p1279
sg15
I400
sg16
g12
sg17
g12
sg18
Vc:\u005cwindows\u005cfonts\u005cconstan.ttf
p1280
sg20
g21
sbag1
(g8
g3
NtRp1281
(dp1282
g11
g28
sg13
S'Arial'
p1283
sg15
I400
sg16
g251
sg17
g12
sg18
VC:\u005cWindows\u005cFonts\u005cARIALNI.TTF
p1284
sg20
g21
sbag1
(g8
g3
NtRp1285
(dp1286
g11
g12
sg13
S'Simplified Arabic Fixed'
p1287
sg15
I400
sg16
g12
sg17
g12
sg18
Vc:\u005cwindows\u005cfonts\u005csimpfxo.ttf
p1288
sg20
g21
sbag1
(g8
g3
NtRp1289
(dp1290
g11
g12
sg13
S'Mangal'
p1291
sg15
I400
sg16
g12
sg17
g12
sg18
Vc:\u005cwindows\u005cfonts\u005cmangal.ttf
p1292
sg20
g21
sbag1
(g8
g3
NtRp1293
(dp1294
g11
g12
sg13
S'Trebuchet MS'
p1295
sg15
I400
sg16
g12
sg17
g12
sg18
Vc:\u005cwindows\u005cfonts\u005ctrebuc.ttf
p1296
sg20
g21
sbag1
(g8
g3
NtRp1297
(dp1298
g11
g12
sg13
S'SimHei'
p1299
sg15
I400
sg16
g12
sg17
g12
sg18
Vc:\u005cwindows\u005cfonts\u005csimhei.ttf
p1300
sg20
g21
sbag1
(g8
g3
NtRp1301
(dp1302
g11
g12
sg13
S'Matura MT Script Capitals'
p1303
sg15
I400
sg16
g12
sg17
g12
sg18
VC:\u005cWindows\u005cFonts\u005cMATURASC.TTF
p1304
sg20
g21
sbag1
(g8
g3
NtRp1305
(dp1306
g11
g12
sg13
S'Gill Sans MT'
p1307
sg15
I400
sg16
g12
sg17
g12
sg18
Vc:\u005cwindows\u005cfonts\u005cgil_____.ttf
p1308
sg20
g21
sbag1
(g8
g3
NtRp1309
(dp1310
g11
g12
sg13
S'Lao UI'
p1311
sg15
I400
sg16
g12
sg17
g12
sg18
Vc:\u005cwindows\u005cfonts\u005claoui.ttf
p1312
sg20
g21
sbag1
(g8
g3
NtRp1313
(dp1314
g11
g12
sg13
S'Gill Sans MT Ext Condensed Bold'
p1315
sg15
I700
sg16
g251
sg17
g12
sg18
VC:\u005cWindows\u005cFonts\u005cGLSNECB.TTF
p1316
sg20
g21
sbag1
(g8
g3
NtRp1317
(dp1318
g11
g12
sg13
S'Perpetua'
p1319
sg15
I400
sg16
g12
sg17
g12
sg18
Vc:\u005cwindows\u005cfonts\u005cper_____.ttf
p1320
sg20
g21
sbag1
(g8
g3
NtRp1321
(dp1322
g11
g28
sg13
S'Brush Script MT'
p1323
sg15
I400
sg16
g12
sg17
g12
sg18
VC:\u005cWindows\u005cFonts\u005cBRUSHSCI.TTF
p1324
sg20
g21
sbag1
(g8
g3
NtRp1325
(dp1326
g11
g28
sg13
S'Liberation Mono'
p1327
sg15
I700
sg16
g12
sg17
g12
sg18
VC:\u005cWindows\u005cFonts\u005cLiberationMono-BoldItalic.ttf
p1328
sg20
g21
sbag1
(g8
g3
NtRp1329
(dp1330
g11
g28
sg13
S'BrowalliaUPC'
p1331
sg15
I400
sg16
g12
sg17
g12
sg18
VC:\u005cWindows\u005cFonts\u005cbrowaui.ttf
p1332
sg20
g21
sbag1
(g8
g3
NtRp1333
(dp1334
g11
g12
sg13
S'DaunPenh'
p1335
sg15
I400
sg16
g12
sg17
g12
sg18
Vc:\u005cwindows\u005cfonts\u005cdaunpenh.ttf
p1336
sg20
g21
sbag1
(g8
g3
NtRp1337
(dp1338
g11
g12
sg13
S'Californian FB'
p1339
sg15
I400
sg16
g12
sg17
g12
sg18
Vc:\u005cwindows\u005cfonts\u005ccalifr.ttf
p1340
sg20
g21
sbag1
(g8
g3
NtRp1341
(dp1342
g11
g12
sg13
S'Calisto MT'
p1343
sg15
I400
sg16
g12
sg17
g12
sg18
VC:\u005cWindows\u005cFonts\u005cCALIST.TTF
p1344
sg20
g21
sbag1
(g8
g3
NtRp1345
(dp1346
g11
g12
sg13
S'Traditional Arabic'
p1347
sg15
I700
sg16
g12
sg17
g12
sg18
Vc:\u005cwindows\u005cfonts\u005ctradbdo.ttf
p1348
sg20
g21
sbag1
(g8
g3
NtRp1349
(dp1350
g11
g12
sg13
S'Source Sans Pro'
p1351
sg15
I700
sg16
g12
sg17
g12
sg18
Vc:\u005cwindows\u005cfonts\u005csourcesanspro-semibold.ttf
p1352
sg20
g21
sbag1
(g8
g3
NtRp1353
(dp1354
g11
g12
sg13
S'Century Schoolbook'
p1355
sg15
I400
sg16
g12
sg17
g12
sg18
Vc:\u005cwindows\u005cfonts\u005ccenscbk.ttf
p1356
sg20
g21
sbag1
(g8
g3
NtRp1357
(dp1358
g11
g12
sg13
S'Corbel'
p1359
sg15
I400
sg16
g12
sg17
g12
sg18
VC:\u005cWindows\u005cFonts\u005ccorbel.ttf
p1360
sg20
g21
sbag1
(g8
g3
NtRp1361
(dp1362
g11
g12
sg13
S'Onyx'
p1363
sg15
I400
sg16
g12
sg17
g12
sg18
VC:\u005cWindows\u005cFonts\u005cONYX.TTF
p1364
sg20
g21
sbag1
(g8
g3
NtRp1365
(dp1366
g11
g12
sg13
S'Gloucester MT Extra Condensed'
p1367
sg15
I400
sg16
g251
sg17
g12
sg18
VC:\u005cWindows\u005cFonts\u005cGLECB.TTF
p1368
sg20
g21
sbag1
(g8
g3
NtRp1369
(dp1370
g11
g28
sg13
S'Liberation Serif'
p1371
sg15
I400
sg16
g12
sg17
g12
sg18
VC:\u005cWindows\u005cFonts\u005cLiberationSerif-Italic.ttf
p1372
sg20
g21
sbag1
(g8
g3
NtRp1373
(dp1374
g11
g12
sg13
S'Gautami'
p1375
sg15
I400
sg16
g12
sg17
g12
sg18
VC:\u005cWindows\u005cFonts\u005cgautami.ttf
p1376
sg20
g21
sbag1
(g8
g3
NtRp1377
(dp1378
g11
g12
sg13
S'Niagara Solid'
p1379
sg15
I400
sg16
g12
sg17
g12
sg18
VC:\u005cWindows\u005cFonts\u005cNIAGSOL.TTF
p1380
sg20
g21
sbag1
(g8
g3
NtRp1381
(dp1382
g11
g12
sg13
S'Carlito'
p1383
sg15
I700
sg16
g12
sg17
g12
sg18
VC:\u005cWindows\u005cFonts\u005cCarlito-Bold.ttf
p1384
sg20
g21
sbag1
(g8
g3
NtRp1385
(dp1386
g11
g12
sg13
S'Liberation Sans'
p1387
sg15
I400
sg16
g12
sg17
g12
sg18
VC:\u005cWindows\u005cFonts\u005cLiberationSans-Regular.ttf
p1388
sg20
g21
sbag1
(g8
g3
NtRp1389
(dp1390
g11
g12
sg13
S'Microsoft Yi Baiti'
p1391
sg15
I400
sg16
g12
sg17
g12
sg18
VC:\u005cWindows\u005cFonts\u005cmsyi.ttf
p1392
sg20
g21
sbag1
(g8
g3
NtRp1393
(dp1394
g11
g28
sg13
S'DejaVu Serif'
p1395
sg15
I400
sg16
g251
sg17
g12
sg18
Vc:\u005cwindows\u005cfonts\u005cdejavuserifcondensed-italic.ttf
p1396
sg20
g21
sbag1
(g8
g3
NtRp1397
(dp1398
g11
g12
sg13
S'Vendetta'
p1399
sg15
I400
sg16
g12
sg17
g12
sg18
VC:\u005cWindows\u005cFonts\u005cVENDETTA.TTF
p1400
sg20
g21
sbag1
(g8
g3
NtRp1401
(dp1402
g11
g12
sg13
S'Levenim MT'
p1403
sg15
I400
sg16
g12
sg17
g12
sg18
VC:\u005cWindows\u005cFonts\u005clvnm.ttf
p1404
sg20
g21
sbag1
(g8
g3
NtRp1405
(dp1406
g11
g12
sg13
S'Bookman Old Style'
p1407
sg15
I700
sg16
g12
sg17
g12
sg18
VC:\u005cWindows\u005cFonts\u005cBOOKOSB.TTF
p1408
sg20
g21
sbag1
(g8
g3
NtRp1409
(dp1410
g11
g12
sg13
S'DilleniaUPC'
p1411
sg15
I700
sg16
g12
sg17
g12
sg18
Vc:\u005cwindows\u005cfonts\u005cupcdb.ttf
p1412
sg20
g21
sbag1
(g8
g3
NtRp1413
(dp1414
g11
g28
sg13
S'PT Serif'
p1415
sg15
I400
sg16
g12
sg17
g12
sg18
VC:\u005cWindows\u005cFonts\u005cPT_Serif-Web-Italic.ttf
p1416
sg20
g21
sbag1
(g8
g3
NtRp1417
(dp1418
g11
g12
sg13
S'DejaVu Serif'
p1419
sg15
I700
sg16
g251
sg17
g12
sg18
VC:\u005cWindows\u005cFonts\u005cDejaVuSerifCondensed-Bold.ttf
p1420
sg20
g21
sbag1
(g8
g3
NtRp1421
(dp1422
g11
g28
sg13
S'Tw Cen MT'
p1423
sg15
I700
sg16
g12
sg17
g12
sg18
Vc:\u005cwindows\u005cfonts\u005ctcbi____.ttf
p1424
sg20
g21
sbag1
(g8
g3
NtRp1425
(dp1426
g11
g12
sg13
S'Liberation Mono'
p1427
sg15
I700
sg16
g12
sg17
g12
sg18
VC:\u005cWindows\u005cFonts\u005cLiberationMono-Bold.ttf
p1428
sg20
g21
sbag1
(g8
g3
NtRp1429
(dp1430
g11
g12
sg13
S'Verdana'
p1431
sg15
I700
sg16
g12
sg17
g12
sg18
Vc:\u005cwindows\u005cfonts\u005cverdanab.ttf
p1432
sg20
g21
sbag1
(g8
g3
NtRp1433
(dp1434
g11
g28
sg13
S'Liberation Sans Narrow'
p1435
sg15
I700
sg16
g251
sg17
g12
sg18
VC:\u005cWindows\u005cFonts\u005cLiberationSansNarrow-BoldItalic.ttf
p1436
sg20
g21
sbag1
(g8
g3
NtRp1437
(dp1438
g11
g28
sg13
S'Liberation Serif'
p1439
sg15
I700
sg16
g12
sg17
g12
sg18
VC:\u005cWindows\u005cFonts\u005cLiberationSerif-BoldItalic.ttf
p1440
sg20
g21
sbag1
(g8
g3
NtRp1441
(dp1442
g11
g28
sg13
S'Courier New'
p1443
sg15
I700
sg16
g12
sg17
g12
sg18
Vc:\u005cwindows\u005cfonts\u005ccourbi.ttf
p1444
sg20
g21
sbag1
(g8
g3
NtRp1445
(dp1446
g11
g12
sg13
S'Gentium Book Basic'
p1447
sg15
I400
sg16
g12
sg17
g12
sg18
VC:\u005cWindows\u005cFonts\u005cGenBkBasR.ttf
p1448
sg20
g21
sbag1
(g8
g3
NtRp1449
(dp1450
g11
g12
sg13
S'Microsoft PhagsPa'
p1451
sg15
I400
sg16
g12
sg17
g12
sg18
Vc:\u005cwindows\u005cfonts\u005cphagspa.ttf
p1452
sg20
g21
sbag1
(g8
g3
NtRp1453
(dp1454
g11
g12
sg13
S'Wingdings 3'
p1455
sg15
I400
sg16
g12
sg17
g12
sg18
Vc:\u005cwindows\u005cfonts\u005cwingdng3.ttf
p1456
sg20
g21
sbag1
(g8
g3
NtRp1457
(dp1458
g11
g28
sg13
S'DejaVu Serif'
p1459
sg15
I700
sg16
g251
sg17
g12
sg18
VC:\u005cWindows\u005cFonts\u005cDejaVuSerifCondensed-BoldItalic.ttf
p1460
sg20
g21
sbag1
(g8
g3
NtRp1461
(dp1462
g11
g12
sg13
S'IrisUPC'
p1463
sg15
I700
sg16
g12
sg17
g12
sg18
VC:\u005cWindows\u005cFonts\u005cupcib.ttf
p1464
sg20
g21
sbag1
(g8
g3
NtRp1465
(dp1466
g11
g12
sg13
S'Calisto MT'
p1467
sg15
I700
sg16
g12
sg17
g12
sg18
Vc:\u005cwindows\u005cfonts\u005ccalistb.ttf
p1468
sg20
g21
sbag1
(g8
g3
NtRp1469
(dp1470
g11
g12
sg13
S'Juice ITC'
p1471
sg15
I400
sg16
g12
sg17
g12
sg18
VC:\u005cWindows\u005cFonts\u005cJUICE___.TTF
p1472
sg20
g21
sbag1
(g8
g3
NtRp1473
(dp1474
g11
g12
sg13
S'Consolas'
p1475
sg15
I400
sg16
g12
sg17
g12
sg18
VC:\u005cWindows\u005cFonts\u005cconsola.ttf
p1476
sg20
g21
sbag1
(g8
g3
NtRp1477
(dp1478
g11
g28
sg13
S'Open Sans'
p1479
sg15
I400
sg16
g12
sg17
g12
sg18
VC:\u005cWindows\u005cFonts\u005cOpenSans-Italic.ttf
p1480
sg20
g21
sbag1
(g8
g3
NtRp1481
(dp1482
g11
g12
sg13
S'Shruti'
p1483
sg15
I400
sg16
g12
sg17
g12
sg18
VC:\u005cWindows\u005cFonts\u005cshruti.ttf
p1484
sg20
g21
sbag1
(g8
g3
NtRp1485
(dp1486
g11
g28
sg13
S'Calisto MT'
p1487
sg15
I400
sg16
g12
sg17
g12
sg18
Vc:\u005cwindows\u005cfonts\u005ccalisti.ttf
p1488
sg20
g21
sbag1
(g8
g3
NtRp1489
(dp1490
g11
g12
sg13
S'Angsana New'
p1491
sg15
I400
sg16
g12
sg17
g12
sg18
VC:\u005cWindows\u005cFonts\u005cangsa.ttf
p1492
sg20
g21
sbag1
(g8
g3
NtRp1493
(dp1494
g11
g12
sg13
S'Bradley Hand ITC'
p1495
sg15
I400
sg16
g12
sg17
g12
sg18
VC:\u005cWindows\u005cFonts\u005cBRADHITC.TTF
p1496
sg20
g21
sbag1
(g8
g3
NtRp1497
(dp1498
g11
g12
sg13
S'Viner Hand ITC'
p1499
sg15
I400
sg16
g12
sg17
g12
sg18
Vc:\u005cwindows\u005cfonts\u005cvineritc.ttf
p1500
sg20
g21
sbag1
(g8
g3
NtRp1501
(dp1502
g11
g12
sg13
S'Jokerman'
p1503
sg15
I400
sg16
g12
sg17
g12
sg18
Vc:\u005cwindows\u005cfonts\u005cjokerman.ttf
p1504
sg20
g21
sbag1
(g8
g3
NtRp1505
(dp1506
g11
g28
sg13
S'Source Sans Pro'
p1507
sg15
I200
sg16
g12
sg17
g12
sg18
VC:\u005cWindows\u005cFonts\u005cSourceSansPro-LightIt.ttf
p1508
sg20
g21
sbag1
(g8
g3
NtRp1509
(dp1510
g11
g28
sg13
S'Lucida Handwriting'
p1511
sg15
I400
sg16
g12
sg17
g12
sg18
VC:\u005cWindows\u005cFonts\u005cLHANDW.TTF
p1512
sg20
g21
sbag1
(g8
g3
NtRp1513
(dp1514
g11
g12
sg13
S'Segoe UI'
p1515
sg15
I700
sg16
g12
sg17
g12
sg18
VC:\u005cWindows\u005cFonts\u005csegoeuib.ttf
p1516
sg20
g21
sbag1
(g8
g3
NtRp1517
(dp1518
g11
g12
sg13
S'Ebrima'
p1519
sg15
I400
sg16
g12
sg17
g12
sg18
VC:\u005cWindows\u005cFonts\u005cebrima.ttf
p1520
sg20
g21
sbag1
(g8
g3
NtRp1521
(dp1522
g11
g28
sg13
S'Candara'
p1523
sg15
I700
sg16
g12
sg17
g12
sg18
VC:\u005cWindows\u005cFonts\u005cCandaraz.ttf
p1524
sg20
g21
sbag1
(g8
g3
NtRp1525
(dp1526
g11
g12
sg13
S'Blackadder ITC'
p1527
sg15
I900
sg16
g12
sg17
g12
sg18
Vc:\u005cwindows\u005cfonts\u005citcblkad.ttf
p1528
sg20
g21
sbag1
(g8
g3
NtRp1529
(dp1530
g11
g28
sg13
S'Bodoni MT'
p1531
sg15
I700
sg16
g251
sg17
g12
sg18
VC:\u005cWindows\u005cFonts\u005cBOD_CBI.TTF
p1532
sg20
g21
sbag1
(g8
g3
NtRp1533
(dp1534
g11
g12
sg13
S'Baskerville Old Face'
p1535
sg15
I400
sg16
g12
sg17
g12
sg18
Vc:\u005cwindows\u005cfonts\u005cbaskvill.ttf
p1536
sg20
g21
sbag1
(g8
g3
NtRp1537
(dp1538
g11
g28
sg13
S'Linux Libertine G'
p1539
sg15
I700
sg16
g12
sg17
g12
sg18
Vc:\u005cwindows\u005cfonts\u005clinlibertine_rzi_g.ttf
p1540
sg20
g21
sbag1
(g8
g3
NtRp1541
(dp1542
g11
g12
sg13
S'Aparajita'
p1543
sg15
I700
sg16
g12
sg17
g12
sg18
VC:\u005cWindows\u005cFonts\u005caparajb.ttf
p1544
sg20
g21
sbag1
(g8
g3
NtRp1545
(dp1546
g11
g28
sg13
S'Rockwell'
p1547
sg15
I400
sg16
g12
sg17
g12
sg18
Vc:\u005cwindows\u005cfonts\u005crocki.ttf
p1548
sg20
g21
sbag1
(g8
g3
NtRp1549
(dp1550
g11
g28
sg13
S'Book Antiqua'
p1551
sg15
I400
sg16
g12
sg17
g12
sg18
VC:\u005cWindows\u005cFonts\u005cANTQUAI.TTF
p1552
sg20
g21
sbag1
(g8
g3
NtRp1553
(dp1554
g11
g12
sg13
S'Book Antiqua'
p1555
sg15
I400
sg16
g12
sg17
g12
sg18
Vc:\u005cwindows\u005cfonts\u005cbkant.ttf
p1556
sg20
g21
sbag1
(g8
g3
NtRp1557
(dp1558
g11
g12
sg13
S'Malgun Gothic'
p1559
sg15
I400
sg16
g12
sg17
g12
sg18
VC:\u005cWindows\u005cFonts\u005cmalgun.ttf
p1560
sg20
g21
sbag1
(g8
g3
NtRp1561
(dp1562
g11
g28
sg13
S'Bodoni MT'
p1563
sg15
I400
sg16
g12
sg17
g12
sg18
VC:\u005cWindows\u005cFonts\u005cBOD_I.TTF
p1564
sg20
g21
sbag1
(g8
g3
NtRp1565
(dp1566
g11
g28
sg13
S'Liberation Sans'
p1567
sg15
I700
sg16
g12
sg17
g12
sg18
Vc:\u005cwindows\u005cfonts\u005cliberationsans-bolditalic.ttf
p1568
sg20
g21
sbag1
(g8
g3
NtRp1569
(dp1570
g11
g12
sg13
S'Lucida Sans'
p1571
sg15
I400
sg16
g12
sg17
g12
sg18
Vc:\u005cwindows\u005cfonts\u005clsans.ttf
p1572
sg20
g21
sbag1
(g8
g3
NtRp1573
(dp1574
g11
g12
sg13
S'AngsanaUPC'
p1575
sg15
I400
sg16
g12
sg17
g12
sg18
VC:\u005cWindows\u005cFonts\u005cangsau.ttf
p1576
sg20
g21
sbag1
(g8
g3
NtRp1577
(dp1578
g11
g12
sg13
S'Garamond'
p1579
sg15
I700
sg16
g12
sg17
g12
sg18
Vc:\u005cwindows\u005cfonts\u005cgarabd.ttf
p1580
sg20
g21
sbag1
(g8
g3
NtRp1581
(dp1582
g11
g28
sg13
S'Linux Libertine G'
p1583
sg15
I700
sg16
g12
sg17
g12
sg18
Vc:\u005cwindows\u005cfonts\u005clinlibertine_rbi_g.ttf
p1584
sg20
g21
sbag1
(g8
g3
NtRp1585
(dp1586
g11
g12
sg13
S'Microsoft Uighur'
p1587
sg15
I400
sg16
g12
sg17
g12
sg18
VC:\u005cWindows\u005cFonts\u005cmsuighur.ttf
p1588
sg20
g21
sbag1
(g8
g3
NtRp1589
(dp1590
g11
g12
sg13
S'Linux Biolinum G'
p1591
sg15
I700
sg16
g12
sg17
g12
sg18
Vc:\u005cwindows\u005cfonts\u005clinbiolinum_rb_g.ttf
p1592
sg20
g21
sbag1
(g8
g3
NtRp1593
(dp1594
g11
g12
sg13
S'Courier New'
p1595
sg15
I700
sg16
g12
sg17
g12
sg18
VC:\u005cWindows\u005cFonts\u005ccourbd.ttf
p1596
sg20
g21
sbag1
(g8
g3
NtRp1597
(dp1598
g11
g12
sg13
S'Snap ITC'
p1599
sg15
I400
sg16
g12
sg17
g12
sg18
VC:\u005cWindows\u005cFonts\u005cSNAP____.TTF
p1600
sg20
g21
sbag1
(g8
g3
NtRp1601
(dp1602
g11
g12
sg13
S'Gisha'
p1603
sg15
I400
sg16
g12
sg17
g12
sg18
Vc:\u005cwindows\u005cfonts\u005cgisha.ttf
p1604
sg20
g21
sbag1
(g8
g3
NtRp1605
(dp1606
g11
g45
sg13
S'DejaVu Sans Mono'
p1607
sg15
I700
sg16
g12
sg17
g12
sg18
Vc:\u005cwindows\u005cfonts\u005cdejavusansmono-boldoblique.ttf
p1608
sg20
g21
sbag1
(g8
g3
NtRp1609
(dp1610
g11
g12
sg13
S'Calisto MT'
p1611
sg15
I400
sg16
g12
sg17
g12
sg18
Vc:\u005cwindows\u005cfonts\u005ccalist.ttf
p1612
sg20
g21
sbag1
(g8
g3
NtRp1613
(dp1614
g11
g12
sg13
S'Curlz MT'
p1615
sg15
I400
sg16
g12
sg17
g12
sg18
Vc:\u005cwindows\u005cfonts\u005ccurlz___.ttf
p1616
sg20
g21
sbag1
(g8
g3
NtRp1617
(dp1618
g11
g28
sg13
S'Arial'
p1619
sg15
I700
sg16
g12
sg17
g12
sg18
Vc:\u005cwindows\u005cfonts\u005carialbi.ttf
p1620
sg20
g21
sbag1
(g8
g3
NtRp1621
(dp1622
g11
g28
sg13
S'Trebuchet MS'
p1623
sg15
I400
sg16
g12
sg17
g12
sg18
Vc:\u005cwindows\u005cfonts\u005ctrebucit.ttf
p1624
sg20
g21
sbag1
(g8
g3
NtRp1625
(dp1626
g11
g28
sg13
S'Bookman Old Style'
p1627
sg15
I400
sg16
g12
sg17
g12
sg18
VC:\u005cWindows\u005cFonts\u005cBOOKOSI.TTF
p1628
sg20
g21
sbag1
(g8
g3
NtRp1629
(dp1630
g11
g12
sg13
S'Britannic Bold'
p1631
sg15
I700
sg16
g12
sg17
g12
sg18
Vc:\u005cwindows\u005cfonts\u005cbritanic.ttf
p1632
sg20
g21
sbag1
(g8
g3
NtRp1633
(dp1634
g11
g12
sg13
S'Rockwell'
p1635
sg15
I700
sg16
g12
sg17
g12
sg18
VC:\u005cWindows\u005cFonts\u005cROCKB.TTF
p1636
sg20
g21
sbag1
(g8
g3
NtRp1637
(dp1638
g11
g12
sg13
S'Linux Libertine G'
p1639
sg15
I700
sg16
g12
sg17
g12
sg18
Vc:\u005cwindows\u005cfonts\u005clinlibertine_rb_g.ttf
p1640
sg20
g21
sbag1
(g8
g3
NtRp1641
(dp1642
g11
g12
sg13
S'Californian FB'
p1643
sg15
I700
sg16
g12
sg17
g12
sg18
VC:\u005cWindows\u005cFonts\u005cCALIFB.TTF
p1644
sg20
g21
sbag1
(g8
g3
NtRp1645
(dp1646
g11
g28
sg13
S'PT Serif'
p1647
sg15
I700
sg16
g12
sg17
g12
sg18
Vc:\u005cwindows\u005cfonts\u005cpt_serif-web-bolditalic.ttf
p1648
sg20
g21
sbag1
(g8
g3
NtRp1649
(dp1650
g11
g28
sg13
S'Liberation Serif'
p1651
sg15
I400
sg16
g12
sg17
g12
sg18
Vc:\u005cwindows\u005cfonts\u005cliberationserif-italic.ttf
p1652
sg20
g21
sbag1
(g8
g3
NtRp1653
(dp1654
g11
g12
sg13
S'Liberation Sans'
p1655
sg15
I700
sg16
g12
sg17
g12
sg18
Vc:\u005cwindows\u005cfonts\u005cliberationsans-bold.ttf
p1656
sg20
g21
sbag1
(g8
g3
NtRp1657
(dp1658
g11
g12
sg13
S'Linux Libertine G'
p1659
sg15
I700
sg16
g12
sg17
g12
sg18
VC:\u005cWindows\u005cFonts\u005cLinLibertine_RB_G.ttf
p1660
sg20
g21
sbag1
(g8
g3
NtRp1661
(dp1662
g11
g12
sg13
S'MS Reference Sans Serif'
p1663
sg15
I400
sg16
g12
sg17
g12
sg18
VC:\u005cWindows\u005cFonts\u005cREFSAN.TTF
p1664
sg20
g21
sbag1
(g8
g3
NtRp1665
(dp1666
g11
g12
sg13
S'PT Serif'
p1667
sg15
I700
sg16
g12
sg17
g12
sg18
VC:\u005cWindows\u005cFonts\u005cPT_Serif-Web-Bold.ttf
p1668
sg20
g21
sbag1
(g8
g3
NtRp1669
(dp1670
g11
g12
sg13
S'Bauhaus 93'
p1671
sg15
I400
sg16
g12
sg17
g12
sg18
Vc:\u005cwindows\u005cfonts\u005cbauhs93.ttf
p1672
sg20
g21
sbag1
(g8
g3
NtRp1673
(dp1674
g11
g28
sg13
S'Lucida Calligraphy'
p1675
sg15
I400
sg16
g12
sg17
g12
sg18
Vc:\u005cwindows\u005cfonts\u005clcallig.ttf
p1676
sg20
g21
sbag1
(g8
g3
NtRp1677
(dp1678
g11
g45
sg13
S'Lucida Sans Typewriter'
p1679
sg15
I700
sg16
g12
sg17
g12
sg18
VC:\u005cWindows\u005cFonts\u005cLTYPEBO.TTF
p1680
sg20
g21
sbag1
(g8
g3
NtRp1681
(dp1682
g11
g28
sg13
S'Source Sans Pro'
p1683
sg15
I200
sg16
g12
sg17
g12
sg18
Vc:\u005cwindows\u005cfonts\u005csourcesanspro-extralightit.ttf
p1684
sg20
g21
sbag1
(g8
g3
NtRp1685
(dp1686
g11
g12
sg13
S'Colonna MT'
p1687
sg15
I400
sg16
g12
sg17
g12
sg18
Vc:\u005cwindows\u005cfonts\u005ccolonna.ttf
p1688
sg20
g21
sbag1
(g8
g3
NtRp1689
(dp1690
g11
g12
sg13
S'SimSun-ExtB'
p1691
sg15
I400
sg16
g12
sg17
g12
sg18
Vc:\u005cwindows\u005cfonts\u005csimsunb.ttf
p1692
sg20
g21
sbag1
(g8
g3
NtRp1693
(dp1694
g11
g28
sg13
S'Liberation Sans'
p1695
sg15
I700
sg16
g12
sg17
g12
sg18
VC:\u005cWindows\u005cFonts\u005cLiberationSans-BoldItalic.ttf
p1696
sg20
g21
sbag1
(g8
g3
NtRp1697
(dp1698
g11
g12
sg13
S'Comic Sans MS'
p1699
sg15
I700
sg16
g12
sg17
g12
sg18
Vc:\u005cwindows\u005cfonts\u005ccomicbd.ttf
p1700
sg20
g21
sbag1
(g8
g3
NtRp1701
(dp1702
g11
g12
sg13
S'Candara'
p1703
sg15
I700
sg16
g12
sg17
g12
sg18
Vc:\u005cwindows\u005cfonts\u005ccandarab.ttf
p1704
sg20
g21
sbag1
(g8
g3
NtRp1705
(dp1706
g11
g12
sg13
S'Modern No. 20'
p1707
sg15
I400
sg16
g12
sg17
g12
sg18
VC:\u005cWindows\u005cFonts\u005cMOD20.TTF
p1708
sg20
g21
sbag1
(g8
g3
NtRp1709
(dp1710
g11
g12
sg13
S'Showcard Gothic'
p1711
sg15
I400
sg16
g12
sg17
g12
sg18
VC:\u005cWindows\u005cFonts\u005cSHOWG.TTF
p1712
sg20
g21
sbag1
(g8
g3
NtRp1713
(dp1714
g11
g12
sg13
S'Lucida Sans Typewriter'
p1715
sg15
I400
sg16
g12
sg17
g12
sg18
VC:\u005cWindows\u005cFonts\u005cLTYPE.TTF
p1716
sg20
g21
sbag1
(g8
g3
NtRp1717
(dp1718
g11
g45
sg13
S'Lucida Sans Typewriter'
p1719
sg15
I400
sg16
g12
sg17
g12
sg18
Vc:\u005cwindows\u005cfonts\u005cltypeo.ttf
p1720
sg20
g21
sbag1
(g8
g3
NtRp1721
(dp1722
g11
g12
sg13
S'Tw Cen MT Condensed Extra Bold'
p1723
sg15
I700
sg16
g251
sg17
g12
sg18
VC:\u005cWindows\u005cFonts\u005cTCCEB.TTF
p1724
sg20
g21
sbag1
(g8
g3
NtRp1725
(dp1726
g11
g12
sg13
S'Microsoft JhengHei'
p1727
sg15
I400
sg16
g12
sg17
g12
sg18
VC:\u005cWindows\u005cFonts\u005cmsjh.ttf
p1728
sg20
g21
sbag1
(g8
g3
NtRp1729
(dp1730
g11
g12
sg13
S'Eras Light ITC'
p1731
sg15
I200
sg16
g12
sg17
g12
sg18
VC:\u005cWindows\u005cFonts\u005cERASLGHT.TTF
p1732
sg20
g21
sbag1
(g8
g3
NtRp1733
(dp1734
g11
g12
sg13
S'Tw Cen MT'
p1735
sg15
I400
sg16
g12
sg17
g12
sg18
VC:\u005cWindows\u005cFonts\u005cTCM_____.TTF
p1736
sg20
g21
sbag1
(g8
g3
NtRp1737
(dp1738
g11
g28
sg13
S'Carlito'
p1739
sg15
I400
sg16
g12
sg17
g12
sg18
VC:\u005cWindows\u005cFonts\u005cCarlito-Italic.ttf
p1740
sg20
g21
sbag1
(g8
g3
NtRp1741
(dp1742
g11
g12
sg13
S'Goudy Stout'
p1743
sg15
I400
sg16
g12
sg17
g12
sg18
Vc:\u005cwindows\u005cfonts\u005cgoudysto.ttf
p1744
sg20
g21
sbag1
(g8
g3
NtRp1745
(dp1746
g11
g12
sg13
S'Perpetua Titling MT'
p1747
sg15
I200
sg16
g12
sg17
g12
sg18
Vc:\u005cwindows\u005cfonts\u005cpertili.ttf
p1748
sg20
g21
sbag1
(g8
g3
NtRp1749
(dp1750
g11
g28
sg13
S'Caladea'
p1751
sg15
I400
sg16
g12
sg17
g12
sg18
VC:\u005cWindows\u005cFonts\u005cCaladea-Italic.ttf
p1752
sg20
g21
sbag1
(g8
g3
NtRp1753
(dp1754
g11
g28
sg13
S'Calibri'
p1755
sg15
I200
sg16
g12
sg17
g12
sg18
Vc:\u005cwindows\u005cfonts\u005ccalibrili.ttf
p1756
sg20
g21
sbag1
(g8
g3
NtRp1757
(dp1758
g11
g12
sg13
S'David'
p1759
sg15
I400
sg16
g12
sg17
g12
sg18
VC:\u005cWindows\u005cFonts\u005cdavid.ttf
p1760
sg20
g21
sbag1
(g8
g3
NtRp1761
(dp1762
g11
g12
sg13
S'DejaVu Sans'
p1763
sg15
I400
sg16
g12
sg17
g12
sg18
VC:\u005cWindows\u005cFonts\u005cDejaVuSans.ttf
p1764
sg20
g21
sbag1
(g8
g3
NtRp1765
(dp1766
g11
g28
sg13
S'Linux Biolinum G'
p1767
sg15
I400
sg16
g12
sg17
g12
sg18
VC:\u005cWindows\u005cFonts\u005cLinBiolinum_RI_G.ttf
p1768
sg20
g21
sbag1
(g8
g3
NtRp1769
(dp1770
g11
g12
sg13
S'Gigi'
p1771
sg15
I400
sg16
g12
sg17
g12
sg18
VC:\u005cWindows\u005cFonts\u005cGIGI.TTF
p1772
sg20
g21
sbag1
(g8
g3
NtRp1773
(dp1774
g11
g12
sg13
S'Book Antiqua'
p1775
sg15
I700
sg16
g12
sg17
g12
sg18
Vc:\u005cwindows\u005cfonts\u005cantquab.ttf
p1776
sg20
g21
sbag1
(g8
g3
NtRp1777
(dp1778
g11
g12
sg13
S'Tunga'
p1779
sg15
I700
sg16
g12
sg17
g12
sg18
Vc:\u005cwindows\u005cfonts\u005ctungab.ttf
p1780
sg20
g21
sbag1
(g8
g3
NtRp1781
(dp1782
g11
g12
sg13
S'Source Code Pro'
p1783
sg15
I700
sg16
g12
sg17
g12
sg18
Vc:\u005cwindows\u005cfonts\u005csourcecodepro-bold.ttf
p1784
sg20
g21
sbag1
(g8
g3
NtRp1785
(dp1786
g11
g12
sg13
S'Californian FB'
p1787
sg15
I400
sg16
g12
sg17
g12
sg18
VC:\u005cWindows\u005cFonts\u005cCALIFR.TTF
p1788
sg20
g21
sbag1
(g8
g3
NtRp1789
(dp1790
g11
g28
sg13
S'Candara'
p1791
sg15
I400
sg16
g12
sg17
g12
sg18
Vc:\u005cwindows\u005cfonts\u005ccandarai.ttf
p1792
sg20
g21
sbag1
(g8
g3
NtRp1793
(dp1794
g11
g12
sg13
S'EucrosiaUPC'
p1795
sg15
I700
sg16
g12
sg17
g12
sg18
Vc:\u005cwindows\u005cfonts\u005cupceb.ttf
p1796
sg20
g21
sbag1
(g8
g3
NtRp1797
(dp1798
g11
g12
sg13
S'Franklin Gothic Book'
p1799
sg15
I400
sg16
g12
sg17
g12
sg18
Vc:\u005cwindows\u005cfonts\u005cfrabk.ttf
p1800
sg20
g21
sbag1
(g8
g3
NtRp1801
(dp1802
g11
g12
sg13
S'DejaVu Sans Mono'
p1803
sg15
I700
sg16
g12
sg17
g12
sg18
VC:\u005cWindows\u005cFonts\u005cDejaVuSansMono-Bold.ttf
p1804
sg20
g21
sbag1
(g8
g3
NtRp1805
(dp1806
g11
g12
sg13
S'Aparajita'
p1807
sg15
I400
sg16
g12
sg17
g12
sg18
Vc:\u005cwindows\u005cfonts\u005caparaj.ttf
p1808
sg20
g21
sbag1
(g8
g3
NtRp1809
(dp1810
g11
g12
sg13
S'Caladea'
p1811
sg15
I400
sg16
g12
sg17
g12
sg18
VC:\u005cWindows\u005cFonts\u005cCaladea-Regular.ttf
p1812
sg20
g21
sbag1
(g8
g3
NtRp1813
(dp1814
g11
g12
sg13
S'DejaVu Serif'
p1815
sg15
I400
sg16
g251
sg17
g12
sg18
VC:\u005cWindows\u005cFonts\u005cDejaVuSerifCondensed.ttf
p1816
sg20
g21
sbag1
(g8
g3
NtRp1817
(dp1818
g11
g12
sg13
S'Linux Biolinum G'
p1819
sg15
I400
sg16
g12
sg17
g12
sg18
Vc:\u005cwindows\u005cfonts\u005clinbiolinum_r_g.ttf
p1820
sg20
g21
sbag1
(g8
g3
NtRp1821
(dp1822
g11
g12
sg13
S'Goudy Old Style'
p1823
sg15
I700
sg16
g12
sg17
g12
sg18
Vc:\u005cwindows\u005cfonts\u005cgoudosb.ttf
p1824
sg20
g21
sbag1
(g8
g3
NtRp1825
(dp1826
g11
g12
sg13
S'CordiaUPC'
p1827
sg15
I700
sg16
g12
sg17
g12
sg18
VC:\u005cWindows\u005cFonts\u005ccordiaub.ttf
p1828
sg20
g21
sbag1
(g8
g3
NtRp1829
(dp1830
g11
g12
sg13
S'Eras Light ITC'
p1831
sg15
I200
sg16
g12
sg17
g12
sg18
Vc:\u005cwindows\u005cfonts\u005ceraslght.ttf
p1832
sg20
g21
sbag1
(g8
g3
NtRp1833
(dp1834
g11
g28
sg13
S'Tw Cen MT'
p1835
sg15
I700
sg16
g12
sg17
g12
sg18
VC:\u005cWindows\u005cFonts\u005cTCBI____.TTF
p1836
sg20
g21
sbag1
(g8
g3
NtRp1837
(dp1838
g11
g12
sg13
S'Cooper Black'
p1839
sg15
I900
sg16
g12
sg17
g12
sg18
VC:\u005cWindows\u005cFonts\u005cCOOPBL.TTF
p1840
sg20
g21
sbag1
(g8
g3
NtRp1841
(dp1842
g11
g28
sg13
S'Caladea'
p1843
sg15
I700
sg16
g12
sg17
g12
sg18
Vc:\u005cwindows\u005cfonts\u005ccaladea-bolditalic.ttf
p1844
sg20
g21
sbag1
(g8
g3
NtRp1845
(dp1846
g11
g28
sg13
S'LilyUPC'
p1847
sg15
I400
sg16
g12
sg17
g12
sg18
VC:\u005cWindows\u005cFonts\u005cupcli.ttf
p1848
sg20
g21
sbag1
(g8
g3
NtRp1849
(dp1850
g11
g12
sg13
S'Perpetua Titling MT'
p1851
sg15
I700
sg16
g12
sg17
g12
sg18
Vc:\u005cwindows\u005cfonts\u005cpertibd.ttf
p1852
sg20
g21
sbag1
(g8
g3
NtRp1853
(dp1854
g11
g28
sg13
S'Utsaah'
p1855
sg15
I700
sg16
g12
sg17
g12
sg18
VC:\u005cWindows\u005cFonts\u005cutsaahbi.ttf
p1856
sg20
g21
sbag1
(g8
g3
NtRp1857
(dp1858
g11
g45
sg13
S'DejaVu Sans'
p1859
sg15
I400
sg16
g251
sg17
g12
sg18
Vc:\u005cwindows\u005cfonts\u005cdejavusanscondensed-oblique.ttf
p1860
sg20
g21
sbag1
(g8
g3
NtRp1861
(dp1862
g11
g28
sg13
S'Elephant'
p1863
sg15
I400
sg16
g12
sg17
g12
sg18
Vc:\u005cwindows\u005cfonts\u005celephnti.ttf
p1864
sg20
g21
sbag1
(g8
g3
NtRp1865
(dp1866
g11
g28
sg13
S'Times New Roman'
p1867
sg15
I500
sg16
g12
sg17
g12
sg18
VC:\u005cWindows\u005cFonts\u005ctimesi.ttf
p1868
sg20
g21
sbag1
(g8
g3
NtRp1869
(dp1870
g11
g28
sg13
S'Century Gothic'
p1871
sg15
I700
sg16
g12
sg17
g12
sg18
Vc:\u005cwindows\u005cfonts\u005cgothicbi.ttf
p1872
sg20
g21
sbag1
(g8
g3
NtRp1873
(dp1874
g11
g12
sg13
S'Gabriola'
p1875
sg15
I400
sg16
g12
sg17
g12
sg18
VC:\u005cWindows\u005cFonts\u005cGabriola.ttf
p1876
sg20
g21
sbag1
(g8
g3
NtRp1877
(dp1878
g11
g12
sg13
S'Harrington'
p1879
sg15
I400
sg16
g12
sg17
g12
sg18
Vc:\u005cwindows\u005cfonts\u005charngton.ttf
p1880
sg20
g21
sbag1
(g8
g3
NtRp1881
(dp1882
g11
g12
sg13
S'Carlito'
p1883
sg15
I400
sg16
g12
sg17
g12
sg18
VC:\u005cWindows\u005cFonts\u005cCarlito-Regular.ttf
p1884
sg20
g21
sbag1
(g8
g3
NtRp1885
(dp1886
g11
g12
sg13
S'Gill Sans Ultra Bold'
p1887
sg15
I700
sg16
g12
sg17
g12
sg18
VC:\u005cWindows\u005cFonts\u005cGILSANUB.TTF
p1888
sg20
g21
sbag1
(g8
g3
NtRp1889
(dp1890
g11
g12
sg13
S'Tw Cen MT'
p1891
sg15
I700
sg16
g12
sg17
g12
sg18
VC:\u005cWindows\u005cFonts\u005cTCB_____.TTF
p1892
sg20
g21
sbag1
(g8
g3
NtRp1893
(dp1894
g11
g12
sg13
S'Iskoola Pota'
p1895
sg15
I400
sg16
g12
sg17
g12
sg18
Vc:\u005cwindows\u005cfonts\u005ciskpota.ttf
p1896
sg20
g21
sbag1
(g8
g3
NtRp1897
(dp1898
g11
g12
sg13
S'Bodoni MT'
p1899
sg15
I700
sg16
g251
sg17
g12
sg18
VC:\u005cWindows\u005cFonts\u005cBOD_CB.TTF
p1900
sg20
g21
sbag1
(g8
g3
NtRp1901
(dp1902
g11
g12
sg13
S'Engravers MT'
p1903
sg15
I400
sg16
g12
sg17
g12
sg18
VC:\u005cWindows\u005cFonts\u005cENGR.TTF
p1904
sg20
g21
sbag1
(g8
g3
NtRp1905
(dp1906
g11
g28
sg13
S'Candara'
p1907
sg15
I400
sg16
g12
sg17
g12
sg18
VC:\u005cWindows\u005cFonts\u005cCandarai.ttf
p1908
sg20
g21
sbag1
(g8
g3
NtRp1909
(dp1910
g11
g28
sg13
S'Garamond'
p1911
sg15
I400
sg16
g12
sg17
g12
sg18
Vc:\u005cwindows\u005cfonts\u005cgarait.ttf
p1912
sg20
g21
sbag1
(g8
g3
NtRp1913
(dp1914
g11
g28
sg13
S'Open Sans'
p1915
sg15
I700
sg16
g12
sg17
g12
sg18
Vc:\u005cwindows\u005cfonts\u005copensans-bolditalic.ttf
p1916
sg20
g21
sbag1
(g8
g3
NtRp1917
(dp1918
g11
g12
sg13
S'Gill Sans MT'
p1919
sg15
I700
sg16
g12
sg17
g12
sg18
Vc:\u005cwindows\u005cfonts\u005cgilb____.ttf
p1920
sg20
g21
sbag1
(g8
g3
NtRp1921
(dp1922
g11
g12
sg13
S'Linux Libertine Display G'
p1923
sg15
I400
sg16
g12
sg17
g12
sg18
VC:\u005cWindows\u005cFonts\u005cLinLibertine_DR_G.ttf
p1924
sg20
g21
sbag1
(g8
g3
NtRp1925
(dp1926
g11
g12
sg13
S'Century'
p1927
sg15
I400
sg16
g12
sg17
g12
sg18
Vc:\u005cwindows\u005cfonts\u005ccentury.ttf
p1928
sg20
g21
sbag1
(g8
g3
NtRp1929
(dp1930
g11
g28
sg13
S'Liberation Sans Narrow'
p1931
sg15
I700
sg16
g251
sg17
g12
sg18
Vc:\u005cwindows\u005cfonts\u005cliberationsansnarrow-bolditalic.ttf
p1932
sg20
g21
sbag1
(g8
g3
NtRp1933
(dp1934
g11
g12
sg13
S'DejaVu Serif'
p1935
sg15
I400
sg16
g12
sg17
g12
sg18
VC:\u005cWindows\u005cFonts\u005cDejaVuSerif.ttf
p1936
sg20
g21
sbag1
(g8
g3
NtRp1937
(dp1938
g11
g28
sg13
S'Aparajita'
p1939
sg15
I400
sg16
g12
sg17
g12
sg18
Vc:\u005cwindows\u005cfonts\u005caparaji.ttf
p1940
sg20
g21
sbag1
(g8
g3
NtRp1941
(dp1942
g11
g28
sg13
S'Franklin Gothic Book'
p1943
sg15
I400
sg16
g12
sg17
g12
sg18
Vc:\u005cwindows\u005cfonts\u005cfrabkit.ttf
p1944
sg20
g21
sbag1
(g8
g3
NtRp1945
(dp1946
g11
g12
sg13
S'Mongolian Baiti'
p1947
sg15
I400
sg16
g12
sg17
g12
sg18
VC:\u005cWindows\u005cFonts\u005cmonbaiti.ttf
p1948
sg20
g21
sbag1
(g8
g3
NtRp1949
(dp1950
g11
g12
sg13
S'Arial'
p1951
sg15
I700
sg16
g251
sg17
g12
sg18
Vc:\u005cwindows\u005cfonts\u005carialnb.ttf
p1952
sg20
g21
sbag1
(g8
g3
NtRp1953
(dp1954
g11
g12
sg13
S'Gentium Basic'
p1955
sg15
I400
sg16
g12
sg17
g12
sg18
VC:\u005cWindows\u005cFonts\u005cGenBasR.ttf
p1956
sg20
g21
sbag1
(g8
g3
NtRp1957
(dp1958
g11
g12
sg13
S'MS Outlook'
p1959
sg15
I400
sg16
g12
sg17
g12
sg18
Vc:\u005cwindows\u005cfonts\u005coutlook.ttf
p1960
sg20
g21
sbag1
(g8
g3
NtRp1961
(dp1962
g11
g28
sg13
S'Lucida Fax'
p1963
sg15
I700
sg16
g12
sg17
g12
sg18
Vc:\u005cwindows\u005cfonts\u005clfaxdi.ttf
p1964
sg20
g21
sbag1
(g8
g3
NtRp1965
(dp1966
g11
g12
sg13
S'Candara'
p1967
sg15
I400
sg16
g12
sg17
g12
sg18
Vc:\u005cwindows\u005cfonts\u005ccandara.ttf
p1968
sg20
g21
sbag1
(g8
g3
NtRp1969
(dp1970
g11
g12
sg13
S'Open Sans'
p1971
sg15
I400
sg16
g12
sg17
g12
sg18
Vc:\u005cwindows\u005cfonts\u005copensans-regular.ttf
p1972
sg20
g21
sbag1
(g8
g3
NtRp1973
(dp1974
g11
g28
sg13
S'Carlito'
p1975
sg15
I700
sg16
g12
sg17
g12
sg18
Vc:\u005cwindows\u005cfonts\u005ccarlito-bolditalic.ttf
p1976
sg20
g21
sbag1
(g8
g3
NtRp1977
(dp1978
g11
g12
sg13
S'Perpetua'
p1979
sg15
I400
sg16
g12
sg17
g12
sg18
VC:\u005cWindows\u005cFonts\u005cPER_____.TTF
p1980
sg20
g21
sbag1
(g8
g3
NtRp1981
(dp1982
g11
g12
sg13
S'Vijaya'
p1983
sg15
I400
sg16
g12
sg17
g12
sg18
Vc:\u005cwindows\u005cfonts\u005cvijaya.ttf
p1984
sg20
g21
sbag1
(g8
g3
NtRp1985
(dp1986
g11
g12
sg13
S'Arial'
p1987
sg15
I400
sg16
g251
sg17
g12
sg18
Vc:\u005cwindows\u005cfonts\u005carialn.ttf
p1988
sg20
g21
sbag1
(g8
g3
NtRp1989
(dp1990
g11
g12
sg13
S'Miriam'
p1991
sg15
I400
sg16
g12
sg17
g12
sg18
Vc:\u005cwindows\u005cfonts\u005cmriam.ttf
p1992
sg20
g21
sbag1
(g8
g3
NtRp1993
(dp1994
g11
g28
sg13
S'Cordia New'
p1995
sg15
I400
sg16
g12
sg17
g12
sg18
VC:\u005cWindows\u005cFonts\u005ccordiai.ttf
p1996
sg20
g21
sbag1
(g8
g3
NtRp1997
(dp1998
g11
g12
sg13
S'Segoe UI'
p1999
sg15
I400
sg16
g12
sg17
g12
sg18
VC:\u005cWindows\u005cFonts\u005csegoeuil.ttf
p2000
sg20
g21
sbag1
(g8
g3
NtRp2001
(dp2002
g11
g28
sg13
S'Source Sans Pro'
p2003
sg15
I200
sg16
g12
sg17
g12
sg18
VC:\u005cWindows\u005cFonts\u005cSourceSansPro-ExtraLightIt.ttf
p2004
sg20
g21
sbag1
(g8
g3
NtRp2005
(dp2006
g11
g12
sg13
S'Lucida Fax'
p2007
sg15
I400
sg16
g12
sg17
g12
sg18
Vc:\u005cwindows\u005cfonts\u005clfax.ttf
p2008
sg20
g21
sbag1
(g8
g3
NtRp2009
(dp2010
g11
g12
sg13
S'Source Code Pro'
p2011
sg15
I400
sg16
g12
sg17
g12
sg18
Vc:\u005cwindows\u005cfonts\u005csourcecodepro-regular.ttf
p2012
sg20
g21
sbag1
(g8
g3
NtRp2013
(dp2014
g11
g28
sg13
S'Gill Sans MT'
p2015
sg15
I400
sg16
g12
sg17
g12
sg18
VC:\u005cWindows\u005cFonts\u005cGILI____.TTF
p2016
sg20
g21
sbag1
(g8
g3
NtRp2017
(dp2018
g11
g12
sg13
S'Sakkal Majalla'
p2019
sg15
I700
sg16
g12
sg17
g12
sg18
VC:\u005cWindows\u005cFonts\u005cmajallab.ttf
p2020
sg20
g21
sbag1
(g8
g3
NtRp2021
(dp2022
g11
g28
sg13
S'Rage Italic'
p2023
sg15
I400
sg16
g12
sg17
g12
sg18
VC:\u005cWindows\u005cFonts\u005cRAGE.TTF
p2024
sg20
g21
sbag1
(g8
g3
NtRp2025
(dp2026
g11
g12
sg13
S'Haettenschweiler'
p2027
sg15
I400
sg16
g12
sg17
g12
sg18
Vc:\u005cwindows\u005cfonts\u005chatten.ttf
p2028
sg20
g21
sbag1
(g8
g3
NtRp2029
(dp2030
g11
g28
sg13
S'Perpetua'
p2031
sg15
I700
sg16
g12
sg17
g12
sg18
VC:\u005cWindows\u005cFonts\u005cPERBI___.TTF
p2032
sg20
g21
sbag1
(g8
g3
NtRp2033
(dp2034
g11
g12
sg13
S'JasmineUPC'
p2035
sg15
I400
sg16
g12
sg17
g12
sg18
Vc:\u005cwindows\u005cfonts\u005cupcjl.ttf
p2036
sg20
g21
sbag1
(g8
g3
NtRp2037
(dp2038
g11
g12
sg13
S'Shonar Bangla'
p2039
sg15
I400
sg16
g12
sg17
g12
sg18
VC:\u005cWindows\u005cFonts\u005cShonar.ttf
p2040
sg20
g21
sbag1
(g8
g3
NtRp2041
(dp2042
g11
g12
sg13
S'Gentium Basic'
p2043
sg15
I400
sg16
g12
sg17
g12
sg18
Vc:\u005cwindows\u005cfonts\u005cgenbasr.ttf
p2044
sg20
g21
sbag1
(g8
g3
NtRp2045
(dp2046
g11
g12
sg13
S'Wide Latin'
p2047
sg15
I400
sg16
Vexpanded
p2048
sg17
g12
sg18
VC:\u005cWindows\u005cFonts\u005cLATINWD.TTF
p2049
sg20
g21
sbag1
(g8
g3
NtRp2050
(dp2051
g11
g12
sg13
S'Bookshelf Symbol 7'
p2052
sg15
I400
sg16
g12
sg17
g12
sg18
VC:\u005cWindows\u005cFonts\u005cBSSYM7.TTF
p2053
sg20
g21
sbag1
(g8
g3
NtRp2054
(dp2055
g11
g12
sg13
S'Wingdings'
p2056
sg15
I400
sg16
g12
sg17
g12
sg18
Vc:\u005cwindows\u005cfonts\u005cwingding.ttf
p2057
sg20
g21
sbag1
(g8
g3
NtRp2058
(dp2059
g11
g12
sg13
S'Bell MT'
p2060
sg15
I400
sg16
g12
sg17
g12
sg18
Vc:\u005cwindows\u005cfonts\u005cbell.ttf
p2061
sg20
g21
sbag1
(g8
g3
NtRp2062
(dp2063
g11
g12
sg13
S'MT Extra'
p2064
sg15
I400
sg16
g12
sg17
g12
sg18
Vc:\u005cprogram files\u005ccommon files\u005cmicrosoft shared\u005cequation\u005cmtextra.ttf
p2065
sg20
g21
sbag1
(g8
g3
NtRp2066
(dp2067
g11
g28
sg13
S'Corbel'
p2068
sg15
I700
sg16
g12
sg17
g12
sg18
VC:\u005cWindows\u005cFonts\u005ccorbelz.ttf
p2069
sg20
g21
sbag1
(g8
g3
NtRp2070
(dp2071
g11
g12
sg13
S'Forte'
p2072
sg15
I400
sg16
g12
sg17
g12
sg18
VC:\u005cWindows\u005cFonts\u005cFORTE.TTF
p2073
sg20
g21
sbag1
(g8
g3
NtRp2074
(dp2075
g11
g12
sg13
S'Bodoni MT'
p2076
sg15
I700
sg16
g12
sg17
g12
sg18
VC:\u005cWindows\u005cFonts\u005cBOD_B.TTF
p2077
sg20
g21
sbag1
(g8
g3
NtRp2078
(dp2079
g11
g12
sg13
S'Segoe Script'
p2080
sg15
I700
sg16
g12
sg17
g12
sg18
Vc:\u005cwindows\u005cfonts\u005csegoescb.ttf
p2081
sg20
g21
sbag1
(g8
g3
NtRp2082
(dp2083
g11
g28
sg13
S'DejaVu Serif'
p2084
sg15
I700
sg16
g251
sg17
g12
sg18
Vc:\u005cwindows\u005cfonts\u005cdejavuserifcondensed-bolditalic.ttf
p2085
sg20
g21
sbag1
(g8
g3
NtRp2086
(dp2087
g11
g28
sg13
S'Franklin Gothic Heavy'
p2088
sg15
I800
sg16
g12
sg17
g12
sg18
VC:\u005cWindows\u005cFonts\u005cFRAHVIT.TTF
p2089
sg20
g21
sbag1
(g8
g3
NtRp2090
(dp2091
g11
g12
sg13
S'Comic Sans MS'
p2092
sg15
I400
sg16
g12
sg17
g12
sg18
VC:\u005cWindows\u005cFonts\u005ccomic.ttf
p2093
sg20
g21
sbag1
(g8
g3
NtRp2094
(dp2095
g11
g12
sg13
S'Tw Cen MT Condensed'
p2096
sg15
I400
sg16
g251
sg17
g12
sg18
VC:\u005cWindows\u005cFonts\u005cTCCM____.TTF
p2097
sg20
g21
sbag1
(g8
g3
NtRp2098
(dp2099
g11
g12
sg13
S'Juice ITC'
p2100
sg15
I400
sg16
g12
sg17
g12
sg18
Vc:\u005cwindows\u005cfonts\u005cjuice___.ttf
p2101
sg20
g21
sbag1
(g8
g3
NtRp2102
(dp2103
g11
g12
sg13
S'French Script MT'
p2104
sg15
I400
sg16
g12
sg17
g12
sg18
VC:\u005cWindows\u005cFonts\u005cFRSCRIPT.TTF
p2105
sg20
g21
sbag1
(g8
g3
NtRp2106
(dp2107
g11
g12
sg13
S'Century Schoolbook'
p2108
sg15
I700
sg16
g12
sg17
g12
sg18
VC:\u005cWindows\u005cFonts\u005cSCHLBKB.TTF
p2109
sg20
g21
sbag1
(g8
g3
NtRp2110
(dp2111
g11
g12
sg13
S'Mistral'
p2112
sg15
I400
sg16
g12
sg17
g12
sg18
VC:\u005cWindows\u005cFonts\u005cMISTRAL.TTF
p2113
sg20
g21
sbag1
(g8
g3
NtRp2114
(dp2115
g11
g12
sg13
S'Franklin Gothic Medium Cond'
p2116
sg15
I500
sg16
g251
sg17
g12
sg18
Vc:\u005cwindows\u005cfonts\u005cframdcn.ttf
p2117
sg20
g21
sbag1
(g8
g3
NtRp2118
(dp2119
g11
g12
sg13
S'Garamond'
p2120
sg15
I700
sg16
g12
sg17
g12
sg18
VC:\u005cWindows\u005cFonts\u005cGARABD.TTF
p2121
sg20
g21
sbag1
(g8
g3
NtRp2122
(dp2123
g11
g28
sg13
S'Franklin Gothic Book'
p2124
sg15
I400
sg16
g12
sg17
g12
sg18
VC:\u005cWindows\u005cFonts\u005cFRABKIT.TTF
p2125
sg20
g21
sbag1
(g8
g3
NtRp2126
(dp2127
g11
g28
sg13
S'Caladea'
p2128
sg15
I700
sg16
g12
sg17
g12
sg18
VC:\u005cWindows\u005cFonts\u005cCaladea-BoldItalic.ttf
p2129
sg20
g21
sbag1
(g8
g3
NtRp2130
(dp2131
g11
g12
sg13
S'DejaVu Sans Mono'
p2132
sg15
I700
sg16
g12
sg17
g12
sg18
Vc:\u005cwindows\u005cfonts\u005cdejavusansmono-bold.ttf
p2133
sg20
g21
sbag1
(g8
g3
NtRp2134
(dp2135
g11
g12
sg13
S'DejaVu Sans Mono'
p2136
sg15
I400
sg16
g12
sg17
g12
sg18
Vc:\u005cwindows\u005cfonts\u005cdejavusansmono.ttf
p2137
sg20
g21
sbag1
(g8
g3
NtRp2138
(dp2139
g11
g12
sg13
S'Castellar'
p2140
sg15
I400
sg16
g12
sg17
g12
sg18
VC:\u005cWindows\u005cFonts\u005cCASTELAR.TTF
p2141
sg20
g21
sbag1
(g8
g3
NtRp2142
(dp2143
g11
g12
sg13
S'Palatino Linotype'
p2144
sg15
I700
sg16
g12
sg17
g12
sg18
Vc:\u005cwindows\u005cfonts\u005cpalab.ttf
p2145
sg20
g21
sbag1
(g8
g3
NtRp2146
(dp2147
g11
g28
sg13
S'Brush Script MT'
p2148
sg15
I400
sg16
g12
sg17
g12
sg18
Vc:\u005cwindows\u005cfonts\u005cbrushsci.ttf
p2149
sg20
g21
sbag1
(g8
g3
NtRp2150
(dp2151
g11
g28
sg13
S'Lucida Fax'
p2152
sg15
I400
sg16
g12
sg17
g12
sg18
VC:\u005cWindows\u005cFonts\u005cLFAXI.TTF
p2153
sg20
g21
sbag1
(g8
g3
NtRp2154
(dp2155
g11
g12
sg13
S'Freestyle Script'
p2156
sg15
I400
sg16
g12
sg17
g12
sg18
Vc:\u005cwindows\u005cfonts\u005cfreescpt.ttf
p2157
sg20
g21
sbag1
(g8
g3
NtRp2158
(dp2159
g11
g28
sg13
S'Bodoni MT'
p2160
sg15
I400
sg16
g251
sg17
g12
sg18
Vc:\u005cwindows\u005cfonts\u005cbod_ci.ttf
p2161
sg20
g21
sbag1
(g8
g3
NtRp2162
(dp2163
g11
g12
sg13
S'Bell MT'
p2164
sg15
I400
sg16
g12
sg17
g12
sg18
VC:\u005cWindows\u005cFonts\u005cBELL.TTF
p2165
sg20
g21
sbag1
(g8
g3
NtRp2166
(dp2167
g11
g12
sg13
S'Gill Sans Ultra Bold'
p2168
sg15
I700
sg16
g12
sg17
g12
sg18
Vc:\u005cwindows\u005cfonts\u005cgilsanub.ttf
p2169
sg20
g21
sbag1
(g8
g3
NtRp2170
(dp2171
g11
g12
sg13
S'Papyrus'
p2172
sg15
I400
sg16
g12
sg17
g12
sg18
VC:\u005cWindows\u005cFonts\u005cPAPYRUS.TTF
p2173
sg20
g21
sbag1
(g8
g3
NtRp2174
(dp2175
g11
g12
sg13
S'Gigi'
p2176
sg15
I400
sg16
g12
sg17
g12
sg18
Vc:\u005cwindows\u005cfonts\u005cgigi.ttf
p2177
sg20
g21
sbag1
(g8
g3
NtRp2178
(dp2179
g11
g12
sg13
S'Tempus Sans ITC'
p2180
sg15
I400
sg16
g12
sg17
g12
sg18
Vc:\u005cwindows\u005cfonts\u005ctempsitc.ttf
p2181
sg20
g21
sbag1
(g8
g3
NtRp2182
(dp2183
g11
g12
sg13
S'Lucida Bright'
p2184
sg15
I700
sg16
g12
sg17
g12
sg18
VC:\u005cWindows\u005cFonts\u005cLBRITED.TTF
p2185
sg20
g21
sbag1
(g8
g3
NtRp2186
(dp2187
g11
g12
sg13
S'Liberation Mono'
p2188
sg15
I700
sg16
g12
sg17
g12
sg18
Vc:\u005cwindows\u005cfonts\u005cliberationmono-bold.ttf
p2189
sg20
g21
sbag1
(g8
g3
NtRp2190
(dp2191
g11
g28
sg13
S'LilyUPC'
p2192
sg15
I700
sg16
g12
sg17
g12
sg18
Vc:\u005cwindows\u005cfonts\u005cupclbi.ttf
p2193
sg20
g21
sbag1
(g8
g3
NtRp2194
(dp2195
g11
g12
sg13
S'Liberation Serif'
p2196
sg15
I700
sg16
g12
sg17
g12
sg18
VC:\u005cWindows\u005cFonts\u005cLiberationSerif-Bold.ttf
p2197
sg20
g21
sbag1
(g8
g3
NtRp2198
(dp2199
g11
g12
sg13
S'FrankRuehl'
p2200
sg15
I400
sg16
g12
sg17
g12
sg18
Vc:\u005cwindows\u005cfonts\u005cfrank.ttf
p2201
sg20
g21
sbag1
(g8
g3
NtRp2202
(dp2203
g11
g12
sg13
S'Wide Latin'
p2204
sg15
I400
sg16
g2048
sg17
g12
sg18
Vc:\u005cwindows\u005cfonts\u005clatinwd.ttf
p2205
sg20
g21
sbag1
(g8
g3
NtRp2206
(dp2207
g11
g12
sg13
S'Raavi'
p2208
sg15
I700
sg16
g12
sg17
g12
sg18
VC:\u005cWindows\u005cFonts\u005craavib.ttf
p2209
sg20
g21
sbag1
(g8
g3
NtRp2210
(dp2211
g11
g12
sg13
S'High Tower Text'
p2212
sg15
I400
sg16
g12
sg17
g12
sg18
Vc:\u005cwindows\u005cfonts\u005chtowert.ttf
p2213
sg20
g21
sbag1
(g8
g3
NtRp2214
(dp2215
g11
g12
sg13
S'Papyrus'
p2216
sg15
I400
sg16
g12
sg17
g12
sg18
Vc:\u005cwindows\u005cfonts\u005cpapyrus.ttf
p2217
sg20
g21
sbag1
(g8
g3
NtRp2218
(dp2219
g11
g28
sg13
S'Lucida Bright'
p2220
sg15
I700
sg16
g12
sg17
g12
sg18
Vc:\u005cwindows\u005cfonts\u005clbritedi.ttf
p2221
sg20
g21
sbag1
(g8
g3
NtRp2222
(dp2223
g11
g28
sg13
S'Liberation Mono'
p2224
sg15
I400
sg16
g12
sg17
g12
sg18
Vc:\u005cwindows\u005cfonts\u005cliberationmono-italic.ttf
p2225
sg20
g21
sbag1
(g8
g3
NtRp2226
(dp2227
g11
g28
sg13
S'FreesiaUPC'
p2228
sg15
I700
sg16
g12
sg17
g12
sg18
VC:\u005cWindows\u005cFonts\u005cupcfbi.ttf
p2229
sg20
g21
sbag1
(g8
g3
NtRp2230
(dp2231
g11
g28
sg13
S'Liberation Sans'
p2232
sg15
I400
sg16
g12
sg17
g12
sg18
Vc:\u005cwindows\u005cfonts\u005cliberationsans-italic.ttf
p2233
sg20
g21
sbag1
(g8
g3
NtRp2234
(dp2235
g11
g12
sg13
S'Elephant'
p2236
sg15
I400
sg16
g12
sg17
g12
sg18
Vc:\u005cwindows\u005cfonts\u005celephnt.ttf
p2237
sg20
g21
sbag1
(g8
g3
NtRp2238
(dp2239
g11
g12
sg13
S'Microsoft New Tai Lue'
p2240
sg15
I400
sg16
g12
sg17
g12
sg18
VC:\u005cWindows\u005cFonts\u005cntailu.ttf
p2241
sg20
g21
sbag1
(g8
g3
NtRp2242
(dp2243
g11
g12
sg13
S'Franklin Gothic Medium Cond'
p2244
sg15
I500
sg16
g251
sg17
g12
sg18
VC:\u005cWindows\u005cFonts\u005cFRAMDCN.TTF
p2245
sg20
g21
sbag1
(g8
g3
NtRp2246
(dp2247
g11
g12
sg13
S'Franklin Gothic Demi Cond'
p2248
sg15
I600
sg16
g251
sg17
g12
sg18
Vc:\u005cwindows\u005cfonts\u005cfradmcn.ttf
p2249
sg20
g21
sbag1
(g8
g3
NtRp2250
(dp2251
g11
g12
sg13
S'DejaVu Sans'
p2252
sg15
I700
sg16
g12
sg17
g12
sg18
VC:\u005cWindows\u005cFonts\u005cDejaVuSans-Bold.ttf
p2253
sg20
g21
sbag1
(g8
g3
NtRp2254
(dp2255
g11
g28
sg13
S'Consolas'
p2256
sg15
I700
sg16
g12
sg17
g12
sg18
Vc:\u005cwindows\u005cfonts\u005cconsolaz.ttf
p2257
sg20
g21
sbag1
(g8
g3
NtRp2258
(dp2259
g11
g28
sg13
S'Bookman Old Style'
p2260
sg15
I700
sg16
g12
sg17
g12
sg18
Vc:\u005cwindows\u005cfonts\u005cbookosbi.ttf
p2261
sg20
g21
sbag1
(g8
g3
NtRp2262
(dp2263
g11
g12
sg13
S'High Tower Text'
p2264
sg15
I400
sg16
g12
sg17
g12
sg18
VC:\u005cWindows\u005cFonts\u005cHTOWERT.TTF
p2265
sg20
g21
sbag1
(g8
g3
NtRp2266
(dp2267
g11
g28
sg13
S'EucrosiaUPC'
p2268
sg15
I400
sg16
g12
sg17
g12
sg18
Vc:\u005cwindows\u005cfonts\u005cupcei.ttf
p2269
sg20
g21
sbag1
(g8
g3
NtRp2270
(dp2271
g11
g12
sg13
S'KodchiangUPC'
p2272
sg15
I700
sg16
g12
sg17
g12
sg18
Vc:\u005cwindows\u005cfonts\u005cupckb.ttf
p2273
sg20
g21
sbag1
(g8
g3
NtRp2274
(dp2275
g11
g12
sg13
S'Linux Libertine G'
p2276
sg15
I700
sg16
g12
sg17
g12
sg18
Vc:\u005cwindows\u005cfonts\u005clinlibertine_rz_g.ttf
p2277
sg20
g21
sbag1
(g8
g3
NtRp2278
(dp2279
g11
g12
sg13
S'Vani'
p2280
sg15
I700
sg16
g12
sg17
g12
sg18
VC:\u005cWindows\u005cFonts\u005cVanib.ttf
p2281
sg20
g21
sbag1
(g8
g3
NtRp2282
(dp2283
g11
g12
sg13
S'Liberation Serif'
p2284
sg15
I400
sg16
g12
sg17
g12
sg18
VC:\u005cWindows\u005cFonts\u005cLiberationSerif-Regular.ttf
p2285
sg20
g21
sbag1
(g8
g3
NtRp2286
(dp2287
g11
g12
sg13
S'Liberation Mono'
p2288
sg15
I400
sg16
g12
sg17
g12
sg18
Vc:\u005cwindows\u005cfonts\u005cliberationmono-regular.ttf
p2289
sg20
g21
sbag1
(g8
g3
NtRp2290
(dp2291
g11
g28
sg13
S'Linux Libertine G'
p2292
sg15
I400
sg16
g12
sg17
g12
sg18
VC:\u005cWindows\u005cFonts\u005cLinLibertine_RI_G.ttf
p2293
sg20
g21
sbag1
(g8
g3
NtRp2294
(dp2295
g11
g28
sg13
S'Corbel'
p2296
sg15
I400
sg16
g12
sg17
g12
sg18
VC:\u005cWindows\u005cFonts\u005ccorbeli.ttf
p2297
sg20
g21
sbag1
(g8
g3
NtRp2298
(dp2299
g11
g28
sg13
S'DejaVu Serif'
p2300
sg15
I700
sg16
g12
sg17
g12
sg18
Vc:\u005cwindows\u005cfonts\u005cdejavuserif-bolditalic.ttf
p2301
sg20
g21
sbag1
(g8
g3
NtRp2302
(dp2303
g11
g12
sg13
S'Gisha'
p2304
sg15
I700
sg16
g12
sg17
g12
sg18
VC:\u005cWindows\u005cFonts\u005cgishabd.ttf
p2305
sg20
g21
sbag1
(g8
g3
NtRp2306
(dp2307
g11
g28
sg13
S'Carlito'
p2308
sg15
I400
sg16
g12
sg17
g12
sg18
Vc:\u005cwindows\u005cfonts\u005ccarlito-italic.ttf
p2309
sg20
g21
sbag1
(g8
g3
NtRp2310
(dp2311
g11
g12
sg13
S'Perpetua'
p2312
sg15
I700
sg16
g12
sg17
g12
sg18
VC:\u005cWindows\u005cFonts\u005cPERB____.TTF
p2313
sg20
g21
sbag1
(g8
g3
NtRp2314
(dp2315
g11
g12
sg13
S'Estrangelo Edessa'
p2316
sg15
I400
sg16
g12
sg17
g12
sg18
VC:\u005cWindows\u005cFonts\u005cestre.ttf
p2317
sg20
g21
sbag1
(g8
g3
NtRp2318
(dp2319
g11
g12
sg13
S'Nyala'
p2320
sg15
I400
sg16
g12
sg17
g12
sg18
Vc:\u005cwindows\u005cfonts\u005cnyala.ttf
p2321
sg20
g21
sbag1
(g8
g3
NtRp2322
(dp2323
g11
g12
sg13
S'Lucida Fax'
p2324
sg15
I400
sg16
g12
sg17
g12
sg18
VC:\u005cWindows\u005cFonts\u005cLFAX.TTF
p2325
sg20
g21
sbag1
(g8
g3
NtRp2326
(dp2327
g11
g12
sg13
S'Bell MT'
p2328
sg15
I700
sg16
g12
sg17
g12
sg18
VC:\u005cWindows\u005cFonts\u005cBELLB.TTF
p2329
sg20
g21
sbag1
(g8
g3
NtRp2330
(dp2331
g11
g12
sg13
S'Rockwell'
p2332
sg15
I400
sg16
g12
sg17
g12
sg18
Vc:\u005cwindows\u005cfonts\u005crock.ttf
p2333
sg20
g21
sbag1
(g8
g3
NtRp2334
(dp2335
g11
g12
sg13
S'Agency FB'
p2336
sg15
I700
sg16
g12
sg17
g12
sg18
VC:\u005cWindows\u005cFonts\u005cAGENCYB.TTF
p2337
sg20
g21
sbag1
(g8
g3
NtRp2338
(dp2339
g11
g12
sg13
S'Vrinda'
p2340
sg15
I400
sg16
g12
sg17
g12
sg18
VC:\u005cWindows\u005cFonts\u005cvrinda.ttf
p2341
sg20
g21
sbag1
(g8
g3
NtRp2342
(dp2343
g11
g12
sg13
S'Carlito'
p2344
sg15
I400
sg16
g12
sg17
g12
sg18
Vc:\u005cwindows\u005cfonts\u005ccarlito-regular.ttf
p2345
sg20
g21
sbag1
(g8
g3
NtRp2346
(dp2347
g11
g28
sg13
S'Lucida Sans'
p2348
sg15
I700
sg16
g12
sg17
g12
sg18
Vc:\u005cwindows\u005cfonts\u005clsansdi.ttf
p2349
sg20
g21
sbag1
(g8
g3
NtRp2350
(dp2351
g11
g12
sg13
S'Tw Cen MT'
p2352
sg15
I700
sg16
g12
sg17
g12
sg18
Vc:\u005cwindows\u005cfonts\u005ctcb_____.ttf
p2353
sg20
g21
sbag1
(g8
g3
NtRp2354
(dp2355
g11
g12
sg13
S'DejaVu Sans'
p2356
sg15
I400
sg16
g251
sg17
g12
sg18
VC:\u005cWindows\u005cFonts\u005cDejaVuSansCondensed.ttf
p2357
sg20
g21
sbag1
(g8
g3
NtRp2358
(dp2359
g11
g12
sg13
S'Century Gothic'
p2360
sg15
I700
sg16
g12
sg17
g12
sg18
VC:\u005cWindows\u005cFonts\u005cGOTHICB.TTF
p2361
sg20
g21
sbag1
(g8
g3
NtRp2362
(dp2363
g11
g28
sg13
S'Gentium Basic'
p2364
sg15
I400
sg16
g12
sg17
g12
sg18
Vc:\u005cwindows\u005cfonts\u005cgenbasi.ttf
p2365
sg20
g21
sbag1
(g8
g3
NtRp2366
(dp2367
g11
g12
sg13
S'Segoe Script'
p2368
sg15
I400
sg16
g12
sg17
g12
sg18
VC:\u005cWindows\u005cFonts\u005csegoesc.ttf
p2369
sg20
g21
sbag1
(g8
g3
NtRp2370
(dp2371
g11
g12
sg13
S'Georgia'
p2372
sg15
I400
sg16
g12
sg17
g12
sg18
VC:\u005cWindows\u005cFonts\u005cgeorgia.ttf
p2373
sg20
g21
sbag1
(g8
g3
NtRp2374
(dp2375
g11
g12
sg13
S'Niagara Solid'
p2376
sg15
I400
sg16
g12
sg17
g12
sg18
Vc:\u005cwindows\u005cfonts\u005cniagsol.ttf
p2377
sg20
g21
sbag1
(g8
g3
NtRp2378
(dp2379
g11
g12
sg13
S'Linux Biolinum G'
p2380
sg15
I400
sg16
g12
sg17
g12
sg18
VC:\u005cWindows\u005cFonts\u005cLinBiolinum_R_G.ttf
p2381
sg20
g21
sbag1
(g8
g3
NtRp2382
(dp2383
g11
g28
sg13
S'Rockwell'
p2384
sg15
I700
sg16
g12
sg17
g12
sg18
Vc:\u005cwindows\u005cfonts\u005crockbi.ttf
p2385
sg20
g21
sbag1
(g8
g3
NtRp2386
(dp2387
g11
g12
sg13
S'Elephant'
p2388
sg15
I400
sg16
g12
sg17
g12
sg18
VC:\u005cWindows\u005cFonts\u005cELEPHNT.TTF
p2389
sg20
g21
sbag1
(g8
g3
NtRp2390
(dp2391
g11
g28
sg13
S'Rockwell'
p2392
sg15
I400
sg16
g12
sg17
g12
sg18
VC:\u005cWindows\u005cFonts\u005cROCKI.TTF
p2393
sg20
g21
sbag1
(g8
g3
NtRp2394
(dp2395
g11
g12
sg13
S'OCR A Extended'
p2396
sg15
I400
sg16
g12
sg17
g12
sg18
VC:\u005cWindows\u005cFonts\u005cOCRAEXT.TTF
p2397
sg20
g21
sbag1
(g8
g3
NtRp2398
(dp2399
g11
g28
sg13
S'Bell MT'
p2400
sg15
I400
sg16
g12
sg17
g12
sg18
VC:\u005cWindows\u005cFonts\u005cBELLI.TTF
p2401
sg20
g21
sbag1
(g8
g3
NtRp2402
(dp2403
g11
g12
sg13
S'Eras Bold ITC'
p2404
sg15
I700
sg16
g12
sg17
g12
sg18
VC:\u005cWindows\u005cFonts\u005cERASBD.TTF
p2405
sg20
g21
sbag1
(g8
g3
NtRp2406
(dp2407
g11
g12
sg13
S'AngsanaUPC'
p2408
sg15
I700
sg16
g12
sg17
g12
sg18
VC:\u005cWindows\u005cFonts\u005cangsaub.ttf
p2409
sg20
g21
sbag1
(g8
g3
NtRp2410
(dp2411
g11
g28
sg13
S'Garamond'
p2412
sg15
I400
sg16
g12
sg17
g12
sg18
VC:\u005cWindows\u005cFonts\u005cGARAIT.TTF
p2413
sg20
g21
sbag1
(g8
g3
NtRp2414
(dp2415
g11
g12
sg13
S'Lao UI'
p2416
sg15
I700
sg16
g12
sg17
g12
sg18
VC:\u005cWindows\u005cFonts\u005cLaoUIb.ttf
p2417
sg20
g21
sbag1
(g8
g3
NtRp2418
(dp2419
g11
g12
sg13
S'Andalus'
p2420
sg15
I400
sg16
g12
sg17
g12
sg18
Vc:\u005cwindows\u005cfonts\u005candlso.ttf
p2421
sg20
g21
sbag1
(g8
g3
NtRp2422
(dp2423
g11
g12
sg13
S'Algerian'
p2424
sg15
I400
sg16
g12
sg17
g12
sg18
Vc:\u005cwindows\u005cfonts\u005calger.ttf
p2425
sg20
g21
sbag1
(g8
g3
NtRp2426
(dp2427
g11
g12
sg13
S'Matura MT Script Capitals'
p2428
sg15
I400
sg16
g12
sg17
g12
sg18
Vc:\u005cwindows\u005cfonts\u005cmaturasc.ttf
p2429
sg20
g21
sbag1
(g8
g3
NtRp2430
(dp2431
g11
g28
sg13
S'CordiaUPC'
p2432
sg15
I400
sg16
g12
sg17
g12
sg18
Vc:\u005cwindows\u005cfonts\u005ccordiaui.ttf
p2433
sg20
g21
sbag1
(g8
g3
NtRp2434
(dp2435
g11
g12
sg13
S'Lucida Sans Typewriter'
p2436
sg15
I400
sg16
g12
sg17
g12
sg18
Vc:\u005cwindows\u005cfonts\u005cltype.ttf
p2437
sg20
g21
sbag1
(g8
g3
NtRp2438
(dp2439
g11
g12
sg13
S'Garamond'
p2440
sg15
I400
sg16
g12
sg17
g12
sg18
VC:\u005cWindows\u005cFonts\u005cGARA.TTF
p2441
sg20
g21
sbag1
(g8
g3
NtRp2442
(dp2443
g11
g12
sg13
S'Franklin Gothic Demi'
p2444
sg15
I600
sg16
g12
sg17
g12
sg18
VC:\u005cWindows\u005cFonts\u005cFRADM.TTF
p2445
sg20
g21
sbag1
(g8
g3
NtRp2446
(dp2447
g11
g28
sg13
S'PT Serif'
p2448
sg15
I700
sg16
g12
sg17
g12
sg18
VC:\u005cWindows\u005cFonts\u005cPT_Serif-Web-BoldItalic.ttf
p2449
sg20
g21
sbag1
(g8
g3
NtRp2450
(dp2451
g11
g12
sg13
S'Palace Script MT'
p2452
sg15
I400
sg16
g12
sg17
g12
sg18
Vc:\u005cwindows\u005cfonts\u005cpalscri.ttf
p2453
sg20
g21
sbag1
(g8
g3
NtRp2454
(dp2455
g11
g12
sg13
S'Century Gothic'
p2456
sg15
I400
sg16
g12
sg17
g12
sg18
Vc:\u005cwindows\u005cfonts\u005cgothic.ttf
p2457
sg20
g21
sbag1
(g8
g3
NtRp2458
(dp2459
g11
g12
sg13
S'Shonar Bangla'
p2460
sg15
I700
sg16
g12
sg17
g12
sg18
VC:\u005cWindows\u005cFonts\u005cShonarb.ttf
p2461
sg20
g21
sbag1
(g8
g3
NtRp2462
(dp2463
g11
g12
sg13
S'MV Boli'
p2464
sg15
I400
sg16
g12
sg17
g12
sg18
VC:\u005cWindows\u005cFonts\u005cmvboli.ttf
p2465
sg20
g21
sbag1
(g8
g3
NtRp2466
(dp2467
g11
g12
sg13
S'Webdings'
p2468
sg15
I400
sg16
g12
sg17
g12
sg18
VC:\u005cWindows\u005cFonts\u005cwebdings.ttf
p2469
sg20
g21
sbag1
(g8
g3
NtRp2470
(dp2471
g11
g12
sg13
S'Garamond'
p2472
sg15
I400
sg16
g12
sg17
g12
sg18
Vc:\u005cwindows\u005cfonts\u005cgara.ttf
p2473
sg20
g21
sbag1
(g8
g3
NtRp2474
(dp2475
g11
g28
sg13
S'Arial'
p2476
sg15
I400
sg16
g251
sg17
g12
sg18
Vc:\u005cwindows\u005cfonts\u005carialni.ttf
p2477
sg20
g21
sbag1
(g8
g3
NtRp2478
(dp2479
g11
g28
sg13
S'Lucida Fax'
p2480
sg15
I400
sg16
g12
sg17
g12
sg18
Vc:\u005cwindows\u005cfonts\u005clfaxi.ttf
p2481
sg20
g21
sbag1
(g8
g3
NtRp2482
(dp2483
g11
g12
sg13
S'Franklin Gothic Heavy'
p2484
sg15
I800
sg16
g12
sg17
g12
sg18
Vc:\u005cwindows\u005cfonts\u005cfrahv.ttf
p2485
sg20
g21
sbag1
(g8
g3
NtRp2486
(dp2487
g11
g12
sg13
S'DejaVu Serif'
p2488
sg15
I400
sg16
g12
sg17
g12
sg18
Vc:\u005cwindows\u005cfonts\u005cdejavuserif.ttf
p2489
sg20
g21
sbag1
(g8
g3
NtRp2490
(dp2491
g11
g12
sg13
S'Niagara Engraved'
p2492
sg15
I400
sg16
g12
sg17
g12
sg18
VC:\u005cWindows\u005cFonts\u005cNIAGENG.TTF
p2493
sg20
g21
sbag1
(g8
g3
NtRp2494
(dp2495
g11
g12
sg13
S'Symbol'
p2496
sg15
I400
sg16
g12
sg17
g12
sg18
Vc:\u005cwindows\u005cfonts\u005csymbol.ttf
p2497
sg20
g21
sbag1
(g8
g3
NtRp2498
(dp2499
g11
g12
sg13
S'Browallia New'
p2500
sg15
I400
sg16
g12
sg17
g12
sg18
VC:\u005cWindows\u005cFonts\u005cbrowa.ttf
p2501
sg20
g21
sbag1
(g8
g3
NtRp2502
(dp2503
g11
g12
sg13
S'Lao UI'
p2504
sg15
I400
sg16
g12
sg17
g12
sg18
VC:\u005cWindows\u005cFonts\u005cLaoUI.ttf
p2505
sg20
g21
sbag1
(g8
g3
NtRp2506
(dp2507
g11
g28
sg13
S'Gentium Book Basic'
p2508
sg15
I400
sg16
g12
sg17
g12
sg18
VC:\u005cWindows\u005cFonts\u005cGenBkBasI.ttf
p2509
sg20
g21
sbag1
(g8
g3
NtRp2510
(dp2511
g11
g12
sg13
S'Informal Roman'
p2512
sg15
I500
sg16
g12
sg17
g12
sg18
VC:\u005cWindows\u005cFonts\u005cINFROMAN.TTF
p2513
sg20
g21
sbag1
(g8
g3
NtRp2514
(dp2515
g11
g12
sg13
S'Source Code Pro'
p2516
sg15
I400
sg16
g12
sg17
g12
sg18
VC:\u005cWindows\u005cFonts\u005cSourceCodePro-Regular.ttf
p2517
sg20
g21
sbag1
(g8
g3
NtRp2518
(dp2519
g11
g12
sg13
S'Microsoft New Tai Lue'
p2520
sg15
I700
sg16
g12
sg17
g12
sg18
VC:\u005cWindows\u005cFonts\u005cntailub.ttf
p2521
sg20
g21
sbag1
(g8
g3
NtRp2522
(dp2523
g11
g12
sg13
S'Vani'
p2524
sg15
I700
sg16
g12
sg17
g12
sg18
Vc:\u005cwindows\u005cfonts\u005cvanib.ttf
p2525
sg20
g21
sbag1
(g8
g3
NtRp2526
(dp2527
g11
g12
sg13
S'MS Reference Specialty'
p2528
sg15
I400
sg16
g12
sg17
g12
sg18
Vc:\u005cwindows\u005cfonts\u005crefspcl.ttf
p2529
sg20
g21
sbag1
(g8
g3
NtRp2530
(dp2531
g11
g28
sg13
S'Goudy Old Style'
p2532
sg15
I400
sg16
g12
sg17
g12
sg18
Vc:\u005cwindows\u005cfonts\u005cgoudosi.ttf
p2533
sg20
g21
sbag1
(g8
g3
NtRp2534
(dp2535
g11
g12
sg13
S'Lucida Bright'
p2536
sg15
I400
sg16
g12
sg17
g12
sg18
Vc:\u005cwindows\u005cfonts\u005clbrite.ttf
p2537
sg20
g21
sbag1
(g8
g3
NtRp2538
(dp2539
g11
g12
sg13
S'Kokila'
p2540
sg15
I400
sg16
g12
sg17
g12
sg18
VC:\u005cWindows\u005cFonts\u005ckokila.ttf
p2541
sg20
g21
sbag1
(g8
g3
NtRp2542
(dp2543
g11
g12
sg13
S'Rockwell Condensed'
p2544
sg15
I700
sg16
g251
sg17
g12
sg18
VC:\u005cWindows\u005cFonts\u005cROCCB___.TTF
p2545
sg20
g21
sbag1
(g8
g3
NtRp2546
(dp2547
g11
g12
sg13
S'Source Sans Pro'
p2548
sg15
I200
sg16
g12
sg17
g12
sg18
Vc:\u005cwindows\u005cfonts\u005csourcesanspro-extralight.ttf
p2549
sg20
g21
sbag1
(g8
g3
NtRp2550
(dp2551
g11
g12
sg13
S'French Script MT'
p2552
sg15
I400
sg16
g12
sg17
g12
sg18
Vc:\u005cwindows\u005cfonts\u005cfrscript.ttf
p2553
sg20
g21
sbag1
(g8
g3
NtRp2554
(dp2555
g11
g12
sg13
S'Rockwell'
p2556
sg15
I400
sg16
g12
sg17
g12
sg18
VC:\u005cWindows\u005cFonts\u005cROCK.TTF
p2557
sg20
g21
sbag1
(g8
g3
NtRp2558
(dp2559
g11
g12
sg13
S'Latha'
p2560
sg15
I700
sg16
g12
sg17
g12
sg18
VC:\u005cWindows\u005cFonts\u005clathab.ttf
p2561
sg20
g21
sbag1
(g8
g3
NtRp2562
(dp2563
g11
g28
sg13
S'Arial'
p2564
sg15
I700
sg16
g251
sg17
g12
sg18
VC:\u005cWindows\u005cFonts\u005cARIALNBI.TTF
p2565
sg20
g21
sbag1
(g8
g3
NtRp2566
(dp2567
g11
g12
sg13
S'Bodoni MT'
p2568
sg15
I900
sg16
g12
sg17
g12
sg18
Vc:\u005cwindows\u005cfonts\u005cbod_blar.ttf
p2569
sg20
g21
sbag1
(g8
g3
NtRp2570
(dp2571
g11
g12
sg13
S'Copperplate Gothic Bold'
p2572
sg15
I700
sg16
g12
sg17
g12
sg18
Vc:\u005cwindows\u005cfonts\u005ccoprgtb.ttf
p2573
sg20
g21
sbag1
(g8
g3
NtRp2574
(dp2575
g11
g28
sg13
S'Goudy Old Style'
p2576
sg15
I400
sg16
g12
sg17
g12
sg18
VC:\u005cWindows\u005cFonts\u005cGOUDOSI.TTF
p2577
sg20
g21
sbag1
(g8
g3
NtRp2578
(dp2579
g11
g12
sg13
S'Harrington'
p2580
sg15
I400
sg16
g12
sg17
g12
sg18
VC:\u005cWindows\u005cFonts\u005cHARNGTON.TTF
p2581
sg20
g21
sbag1
(g8
g3
NtRp2582
(dp2583
g11
g12
sg13
S'Gill Sans MT Condensed'
p2584
sg15
I400
sg16
g251
sg17
g12
sg18
Vc:\u005cwindows\u005cfonts\u005cgilc____.ttf
p2585
sg20
g21
sbag1
(g8
g3
NtRp2586
(dp2587
g11
g28
sg13
S'Bodoni MT'
p2588
sg15
I700
sg16
g12
sg17
g12
sg18
VC:\u005cWindows\u005cFonts\u005cBOD_BI.TTF
p2589
sg20
g21
sbag1
(g8
g3
NtRp2590
(dp2591
g11
g12
sg13
S'Parchment'
p2592
sg15
I400
sg16
g12
sg17
g12
sg18
VC:\u005cWindows\u005cFonts\u005cPARCHM.TTF
p2593
sg20
g21
sbag1
(g8
g3
NtRp2594
(dp2595
g11
g12
sg13
S'Mistral'
p2596
sg15
I400
sg16
g12
sg17
g12
sg18
Vc:\u005cwindows\u005cfonts\u005cmistral.ttf
p2597
sg20
g21
sbag1
(g8
g3
NtRp2598
(dp2599
g11
g12
sg13
S'Rockwell Condensed'
p2600
sg15
I400
sg16
g251
sg17
g12
sg18
Vc:\u005cwindows\u005cfonts\u005crocc____.ttf
p2601
sg20
g21
sbag1
(g8
g3
NtRp2602
(dp2603
g11
g12
sg13
S'CordiaUPC'
p2604
sg15
I400
sg16
g12
sg17
g12
sg18
Vc:\u005cwindows\u005cfonts\u005ccordiau.ttf
p2605
sg20
g21
sbag1
(g8
g3
NtRp2606
(dp2607
g11
g28
sg13
S'Vivaldi'
p2608
sg15
I400
sg16
g12
sg17
g12
sg18
VC:\u005cWindows\u005cFonts\u005cVIVALDII.TTF
p2609
sg20
g21
sbag1
(g8
g3
NtRp2610
(dp2611
g11
g12
sg13
S'Bookman Old Style'
p2612
sg15
I400
sg16
g12
sg17
g12
sg18
VC:\u005cWindows\u005cFonts\u005cBOOKOS.TTF
p2613
sg20
g21
sbag1
(g8
g3
NtRp2614
(dp2615
g11
g28
sg13
S'Liberation Serif'
p2616
sg15
I700
sg16
g12
sg17
g12
sg18
Vc:\u005cwindows\u005cfonts\u005cliberationserif-bolditalic.ttf
p2617
sg20
g21
sbag1
(g8
g3
NtRp2618
(dp2619
g11
g12
sg13
S'Vendetta'
p2620
sg15
I400
sg16
g12
sg17
g12
sg18
Vc:\u005cwindows\u005cfonts\u005cvendetta.ttf
p2621
sg20
g21
sbag1
(g8
g3
NtRp2622
(dp2623
g11
g12
sg13
S'Open Sans'
p2624
sg15
I700
sg16
g12
sg17
g12
sg18
VC:\u005cWindows\u005cFonts\u005cOpenSans-Bold.ttf
p2625
sg20
g21
sbag1
(g8
g3
NtRp2626
(dp2627
g11
g12
sg13
S'Source Sans Pro'
p2628
sg15
I400
sg16
g12
sg17
g12
sg18
VC:\u005cWindows\u005cFonts\u005cSourceSansPro-Regular.ttf
p2629
sg20
g21
sbag1
(g8
g3
NtRp2630
(dp2631
g11
g12
sg13
S'Source Code Pro'
p2632
sg15
I700
sg16
g12
sg17
g12
sg18
VC:\u005cWindows\u005cFonts\u005cSourceCodePro-Bold.ttf
p2633
sg20
g21
sbag1
(g8
g3
NtRp2634
(dp2635
g11
g12
sg13
S'Gentium Basic'
p2636
sg15
I700
sg16
g12
sg17
g12
sg18
VC:\u005cWindows\u005cFonts\u005cGenBasB.ttf
p2637
sg20
g21
sbag1
(g8
g3
NtRp2638
(dp2639
g11
g12
sg13
S'Tahoma'
p2640
sg15
I400
sg16
g12
sg17
g12
sg18
VC:\u005cWindows\u005cFonts\u005ctahoma.ttf
p2641
sg20
g21
sbag1
(g8
g3
NtRp2642
(dp2643
g11
g12
sg13
S'Magneto'
p2644
sg15
I700
sg16
g12
sg17
g12
sg18
VC:\u005cWindows\u005cFonts\u005cMAGNETOB.TTF
p2645
sg20
g21
sbag1
(g8
g3
NtRp2646
(dp2647
g11
g12
sg13
S'Traditional Arabic'
p2648
sg15
I400
sg16
g12
sg17
g12
sg18
VC:\u005cWindows\u005cFonts\u005ctrado.ttf
p2649
sg20
g21
sbag1
(g8
g3
NtRp2650
(dp2651
g11
g12
sg13
S'Linux Biolinum G'
p2652
sg15
I700
sg16
g12
sg17
g12
sg18
VC:\u005cWindows\u005cFonts\u005cLinBiolinum_RB_G.ttf
p2653
sg20
g21
sbag1
(g8
g3
NtRp2654
(dp2655
g11
g12
sg13
S'DejaVu Serif'
p2656
sg15
I700
sg16
g12
sg17
g12
sg18
VC:\u005cWindows\u005cFonts\u005cDejaVuSerif-Bold.ttf
p2657
sg20
g21
sbag1
(g8
g3
NtRp2658
(dp2659
g11
g12
sg13
S'Tw Cen MT Condensed'
p2660
sg15
I400
sg16
g251
sg17
g12
sg18
Vc:\u005cwindows\u005cfonts\u005ctccm____.ttf
p2661
sg20
g21
sbag1
(g8
g3
NtRp2662
(dp2663
g11
g12
sg13
S'Gill Sans MT Ext Condensed Bold'
p2664
sg15
I700
sg16
g251
sg17
g12
sg18
Vc:\u005cwindows\u005cfonts\u005cglsnecb.ttf
p2665
sg20
g21
sbag1
(g8
g3
NtRp2666
(dp2667
g11
g12
sg13
S'Linux Libertine G'
p2668
sg15
I700
sg16
g12
sg17
g12
sg18
VC:\u005cWindows\u005cFonts\u005cLinLibertine_RZ_G.ttf
p2669
sg20
g21
sbag1
(g8
g3
NtRp2670
(dp2671
g11
g28
sg13
S'Angsana New'
p2672
sg15
I700
sg16
g12
sg17
g12
sg18
Vc:\u005cwindows\u005cfonts\u005cangsaz.ttf
p2673
sg20
g21
sbag1
(g8
g3
NtRp2674
(dp2675
g11
g12
sg13
S'Linux Libertine G'
p2676
sg15
I400
sg16
g12
sg17
g12
sg18
Vc:\u005cwindows\u005cfonts\u005clinlibertine_r_g.ttf
p2677
sg20
g21
sbag1
(g8
g3
NtRp2678
(dp2679
g11
g12
sg13
S'Imprint MT Shadow'
p2680
sg15
I400
sg16
g12
sg17
g12
sg18
VC:\u005cWindows\u005cFonts\u005cIMPRISHA.TTF
p2681
sg20
g21
sbag1
(g8
g3
NtRp2682
(dp2683
g11
g12
sg13
S'Gill Sans MT'
p2684
sg15
I400
sg16
g12
sg17
g12
sg18
VC:\u005cWindows\u005cFonts\u005cGIL_____.TTF
p2685
sg20
g21
sbag1
(g8
g3
NtRp2686
(dp2687
g11
g12
sg13
S'Source Sans Pro'
p2688
sg15
I700
sg16
g12
sg17
g12
sg18
Vc:\u005cwindows\u005cfonts\u005csourcesanspro-bold.ttf
p2689
sg20
g21
sbag1
(g8
g3
NtRp2690
(dp2691
g11
g12
sg13
S'Footlight MT Light'
p2692
sg15
I200
sg16
g12
sg17
g12
sg18
VC:\u005cWindows\u005cFonts\u005cFTLTLT.TTF
p2693
sg20
g21
sbag1
(g8
g3
NtRp2694
(dp2695
g11
g12
sg13
S'Century Gothic'
p2696
sg15
I700
sg16
g12
sg17
g12
sg18
Vc:\u005cwindows\u005cfonts\u005cgothicb.ttf
p2697
sg20
g21
sbag1
(g8
g3
NtRp2698
(dp2699
g11
g28
sg13
S'Vivaldi'
p2700
sg15
I400
sg16
g12
sg17
g12
sg18
Vc:\u005cwindows\u005cfonts\u005cvivaldii.ttf
p2701
sg20
g21
sbag1
(g8
g3
NtRp2702
(dp2703
g11
g12
sg13
S'Source Sans Pro'
p2704
sg15
I200
sg16
g12
sg17
g12
sg18
Vc:\u005cwindows\u005cfonts\u005csourcesanspro-light.ttf
p2705
sg20
g21
sbag1
(g8
g3
NtRp2706
(dp2707
g11
g12
sg13
S'Bookman Old Style'
p2708
sg15
I400
sg16
g12
sg17
g12
sg18
Vc:\u005cwindows\u005cfonts\u005cbookos.ttf
p2709
sg20
g21
sbag1
(g8
g3
NtRp2710
(dp2711
g11
g28
sg13
S'Californian FB'
p2712
sg15
I400
sg16
g12
sg17
g12
sg18
VC:\u005cWindows\u005cFonts\u005cCALIFI.TTF
p2713
sg20
g21
sbag1
(g8
g3
NtRp2714
(dp2715
g11
g12
sg13
S'Liberation Sans'
p2716
sg15
I700
sg16
g12
sg17
g12
sg18
VC:\u005cWindows\u005cFonts\u005cLiberationSans-Bold.ttf
p2717
sg20
g21
sbag1
(g8
g3
NtRp2718
(dp2719
g11
g12
sg13
S'Berlin Sans FB Demi'
p2720
sg15
I700
sg16
g12
sg17
g12
sg18
Vc:\u005cwindows\u005cfonts\u005cbrlnsdb.ttf
p2721
sg20
g21
sbag1
(g8
g3
NtRp2722
(dp2723
g11
g12
sg13
S'Perpetua'
p2724
sg15
I700
sg16
g12
sg17
g12
sg18
Vc:\u005cwindows\u005cfonts\u005cperb____.ttf
p2725
sg20
g21
sbag1
(g8
g3
NtRp2726
(dp2727
g11
g28
sg13
S'Century Schoolbook'
p2728
sg15
I700
sg16
g12
sg17
g12
sg18
Vc:\u005cwindows\u005cfonts\u005cschlbkbi.ttf
p2729
sg20
g21
sbag1
(g8
g3
NtRp2730
(dp2731
g11
g28
sg13
S'Source Sans Pro'
p2732
sg15
I900
sg16
g12
sg17
g12
sg18
VC:\u005cWindows\u005cFonts\u005cSourceSansPro-BlackIt.ttf
p2733
sg20
g21
sbag1
(g8
g3
NtRp2734
(dp2735
g11
g28
sg13
S'Source Sans Pro'
p2736
sg15
I700
sg16
g12
sg17
g12
sg18
VC:\u005cWindows\u005cFonts\u005cSourceSansPro-SemiboldIt.ttf
p2737
sg20
g21
sbag1
(g8
g3
NtRp2738
(dp2739
g11
g28
sg13
S'Rage Italic'
p2740
sg15
I400
sg16
g12
sg17
g12
sg18
Vc:\u005cwindows\u005cfonts\u005crage.ttf
p2741
sg20
g21
sbag1
(g8
g3
NtRp2742
(dp2743
g11
g28
sg13
S'Arial'
p2744
sg15
I700
sg16
g251
sg17
g12
sg18
Vc:\u005cwindows\u005cfonts\u005carialnbi.ttf
p2745
sg20
g21
sbag1
(g8
g3
NtRp2746
(dp2747
g11
g12
sg13
S'Playbill'
p2748
sg15
I400
sg16
g12
sg17
g12
sg18
VC:\u005cWindows\u005cFonts\u005cPLAYBILL.TTF
p2749
sg20
g21
sbag1
(g8
g3
NtRp2750
(dp2751
g11
g12
sg13
S'Bodoni MT'
p2752
sg15
I700
sg16
g251
sg17
g12
sg18
Vc:\u005cwindows\u005cfonts\u005cbod_cb.ttf
p2753
sg20
g21
sbag1
(g8
g3
NtRp2754
(dp2755
g11
g28
sg13
S'Franklin Gothic Demi'
p2756
sg15
I600
sg16
g12
sg17
g12
sg18
VC:\u005cWindows\u005cFonts\u005cFRADMIT.TTF
p2757
sg20
g21
sbag1
(g8
g3
NtRp2758
(dp2759
g11
g12
sg13
S'Parchment'
p2760
sg15
I400
sg16
g12
sg17
g12
sg18
Vc:\u005cwindows\u005cfonts\u005cparchm.ttf
p2761
sg20
g21
sbag1
(g8
g3
NtRp2762
(dp2763
g11
g28
sg13
S'Harlow Solid Italic'
p2764
sg15
I400
sg16
g12
sg17
g12
sg18
Vc:\u005cwindows\u005cfonts\u005charlowsi.ttf
p2765
sg20
g21
sbag1
(g8
g3
NtRp2766
(dp2767
g11
g12
sg13
S'Poor Richard'
p2768
sg15
I400
sg16
g12
sg17
g12
sg18
VC:\u005cWindows\u005cFonts\u005cPOORICH.TTF
p2769
sg20
g21
sbag1
(g8
g3
NtRp2770
(dp2771
g11
g12
sg13
S'Edwardian Script ITC'
p2772
sg15
I400
sg16
g12
sg17
g12
sg18
VC:\u005cWindows\u005cFonts\u005cITCEDSCR.TTF
p2773
sg20
g21
sbag1
(g8
g3
NtRp2774
(dp2775
g11
g12
sg13
S'Bodoni MT'
p2776
sg15
I400
sg16
g251
sg17
g12
sg18
VC:\u005cWindows\u005cFonts\u005cBOD_CR.TTF
p2777
sg20
g21
sbag1
(g8
g3
NtRp2778
(dp2779
g11
g12
sg13
S'Showcard Gothic'
p2780
sg15
I400
sg16
g12
sg17
g12
sg18
Vc:\u005cwindows\u005cfonts\u005cshowg.ttf
p2781
sg20
g21
sbag1
(g8
g3
NtRp2782
(dp2783
g11
g12
sg13
S'KodchiangUPC'
p2784
sg15
I400
sg16
g12
sg17
g12
sg18
Vc:\u005cwindows\u005cfonts\u005cupckl.ttf
p2785
sg20
g21
sbag1
(g8
g3
NtRp2786
(dp2787
g11
g45
sg13
S'DejaVu Sans'
p2788
sg15
I400
sg16
g12
sg17
g12
sg18
VC:\u005cWindows\u005cFonts\u005cDejaVuSans-Oblique.ttf
p2789
sg20
g21
sbag1
(g8
g3
NtRp2790
(dp2791
g11
g28
sg13
S'Lucida Sans'
p2792
sg15
I700
sg16
g12
sg17
g12
sg18
VC:\u005cWindows\u005cFonts\u005cLSANSDI.TTF
p2793
sg20
g21
sbag1
(g8
g3
NtRp2794
(dp2795
g11
g28
sg13
S'Century Gothic'
p2796
sg15
I400
sg16
g12
sg17
g12
sg18
Vc:\u005cwindows\u005cfonts\u005cgothici.ttf
p2797
sg20
g21
sbag1
(g8
g3
NtRp2798
(dp2799
g11
g12
sg13
S'Source Sans Pro'
p2800
sg15
I200
sg16
g12
sg17
g12
sg18
VC:\u005cWindows\u005cFonts\u005cSourceSansPro-Light.ttf
p2801
sg20
g21
sbag1
(g8
g3
NtRp2802
(dp2803
g11
g12
sg13
S'Eras Demi ITC'
p2804
sg15
I600
sg16
g12
sg17
g12
sg18
Vc:\u005cwindows\u005cfonts\u005cerasdemi.ttf
p2805
sg20
g21
sbag1
(g8
g3
NtRp2806
(dp2807
g11
g12
sg13
S'Vani'
p2808
sg15
I400
sg16
g12
sg17
g12
sg18
VC:\u005cWindows\u005cFonts\u005cVani.ttf
p2809
sg20
g21
sbag1
(g8
g3
NtRp2810
(dp2811
g11
g12
sg13
S'DejaVu Sans'
p2812
sg15
I700
sg16
g12
sg17
g12
sg18
Vc:\u005cwindows\u005cfonts\u005cdejavusans-bold.ttf
p2813
sg20
g21
sbag1
(g8
g3
NtRp2814
(dp2815
g11
g28
sg13
S'DejaVu Serif'
p2816
sg15
I700
sg16
g12
sg17
g12
sg18
VC:\u005cWindows\u005cFonts\u005cDejaVuSerif-BoldItalic.ttf
p2817
sg20
g21
sbag1
(g8
g3
NtRp2818
(dp2819
g11
g12
sg13
S'Eras Demi ITC'
p2820
sg15
I600
sg16
g12
sg17
g12
sg18
VC:\u005cWindows\u005cFonts\u005cERASDEMI.TTF
p2821
sg20
g21
sbag1
(g8
g3
NtRp2822
(dp2823
g11
g28
sg13
S'DejaVu Serif'
p2824
sg15
I400
sg16
g251
sg17
g12
sg18
VC:\u005cWindows\u005cFonts\u005cDejaVuSerifCondensed-Italic.ttf
p2825
sg20
g21
sbag1
(g8
g3
NtRp2826
(dp2827
g11
g45
sg13
S'DejaVu Sans'
p2828
sg15
I700
sg16
g12
sg17
g12
sg18
Vc:\u005cwindows\u005cfonts\u005cdejavusans-boldoblique.ttf
p2829
sg20
g21
sbag1
(g8
g3
NtRp2830
(dp2831
g11
g12
sg13
S'Lao UI'
p2832
sg15
I700
sg16
g12
sg17
g12
sg18
Vc:\u005cwindows\u005cfonts\u005claouib.ttf
p2833
sg20
g21
sbag1
(g8
g3
NtRp2834
(dp2835
g11
g12
sg13
S'Lucida Bright'
p2836
sg15
I400
sg16
g12
sg17
g12
sg18
VC:\u005cWindows\u005cFonts\u005cLBRITE.TTF
p2837
sg20
g21
sbag1
(g8
g3
NtRp2838
(dp2839
g11
g12
sg13
S'Forte'
p2840
sg15
I400
sg16
g12
sg17
g12
sg18
Vc:\u005cwindows\u005cfonts\u005cforte.ttf
p2841
sg20
g21
sbag1
(g8
g3
NtRp2842
(dp2843
g11
g12
sg13
S'Palatino Linotype'
p2844
sg15
I400
sg16
g12
sg17
g12
sg18
Vc:\u005cwindows\u005cfonts\u005cpala.ttf
p2845
sg20
g21
sbag1
(g8
g3
NtRp2846
(dp2847
g11
g12
sg13
S'DejaVu Serif'
p2848
sg15
I700
sg16
g251
sg17
g12
sg18
Vc:\u005cwindows\u005cfonts\u005cdejavuserifcondensed-bold.ttf
p2849
sg20
g21
sbag1
(g8
g3
NtRp2850
(dp2851
g11
g12
sg13
S'Agency FB'
p2852
sg15
I400
sg16
g12
sg17
g12
sg18
VC:\u005cWindows\u005cFonts\u005cAGENCYR.TTF
p2853
sg20
g21
sbag1
(g8
g3
NtRp2854
(dp2855
g11
g12
sg13
S'Rockwell Extra Bold'
p2856
sg15
I700
sg16
g12
sg17
g12
sg18
VC:\u005cWindows\u005cFonts\u005cROCKEB.TTF
p2857
sg20
g21
sbag1
(g8
g3
NtRp2858
(dp2859
g11
g12
sg13
S'Goudy Old Style'
p2860
sg15
I400
sg16
g12
sg17
g12
sg18
Vc:\u005cwindows\u005cfonts\u005cgoudos.ttf
p2861
sg20
g21
sbag1
(g8
g3
NtRp2862
(dp2863
g11
g12
sg13
S'Tw Cen MT Condensed Extra Bold'
p2864
sg15
I700
sg16
g251
sg17
g12
sg18
Vc:\u005cwindows\u005cfonts\u005ctcceb.ttf
p2865
sg20
g21
sbag1
(g8
g3
NtRp2866
(dp2867
g11
g12
sg13
S'Bodoni MT'
p2868
sg15
I700
sg16
g12
sg17
g12
sg18
Vc:\u005cwindows\u005cfonts\u005cbod_b.ttf
p2869
sg20
g21
sbag1
(g8
g3
NtRp2870
(dp2871
g11
g12
sg13
S'PT Serif'
p2872
sg15
I400
sg16
g12
sg17
g12
sg18
VC:\u005cWindows\u005cFonts\u005cPT_Serif-Web-Regular.ttf
p2873
sg20
g21
sbag1
(g8
g3
NtRp2874
(dp2875
g11
g12
sg13
S'Kunstler Script'
p2876
sg15
I400
sg16
g12
sg17
g12
sg18
Vc:\u005cwindows\u005cfonts\u005ckunstler.ttf
p2877
sg20
g21
sbag1
(g8
g3
NtRp2878
(dp2879
g11
g12
sg13
S'Arial Unicode MS'
p2880
sg15
I400
sg16
g12
sg17
g12
sg18
VC:\u005cWindows\u005cFonts\u005cARIALUNI.TTF
p2881
sg20
g21
sbag1
(g8
g3
NtRp2882
(dp2883
g11
g12
sg13
S'Algerian'
p2884
sg15
I400
sg16
g12
sg17
g12
sg18
VC:\u005cWindows\u005cFonts\u005cALGER.TTF
p2885
sg20
g21
sbag1
(g8
g3
NtRp2886
(dp2887
g11
g12
sg13
S'Rod'
p2888
sg15
I400
sg16
g12
sg17
g12
sg18
Vc:\u005cwindows\u005cfonts\u005crod.ttf
p2889
sg20
g21
sbag1
(g8
g3
NtRp2890
(dp2891
g11
g12
sg13
S'Segoe UI Symbol'
p2892
sg15
I400
sg16
g12
sg17
g12
sg18
Vc:\u005cwindows\u005cfonts\u005cseguisym.ttf
p2893
sg20
g21
sbag1
(g8
g3
NtRp2894
(dp2895
g11
g12
sg13
S'Bodoni MT'
p2896
sg15
I900
sg16
g12
sg17
g12
sg18
VC:\u005cWindows\u005cFonts\u005cBOD_BLAR.TTF
p2897
sg20
g21
sbag1
(g8
g3
NtRp2898
(dp2899
g11
g12
sg13
S'Snap ITC'
p2900
sg15
I400
sg16
g12
sg17
g12
sg18
Vc:\u005cwindows\u005cfonts\u005csnap____.ttf
p2901
sg20
g21
sbag1
(g8
g3
NtRp2902
(dp2903
g11
g28
sg13
S'Candara'
p2904
sg15
I700
sg16
g12
sg17
g12
sg18
Vc:\u005cwindows\u005cfonts\u005ccandaraz.ttf
p2905
sg20
g21
sbag1
(g8
g3
NtRp2906
(dp2907
g11
g12
sg13
S'Agency FB'
p2908
sg15
I400
sg16
g12
sg17
g12
sg18
Vc:\u005cwindows\u005cfonts\u005cagencyr.ttf
p2909
sg20
g21
sbag1
(g8
g3
NtRp2910
(dp2911
g11
g12
sg13
S'Edwardian Script ITC'
p2912
sg15
I400
sg16
g12
sg17
g12
sg18
Vc:\u005cwindows\u005cfonts\u005citcedscr.ttf
p2913
sg20
g21
sbag1
(g8
g3
NtRp2914
(dp2915
g11
g28
sg13
S'High Tower Text'
p2916
sg15
I400
sg16
g12
sg17
g12
sg18
VC:\u005cWindows\u005cFonts\u005cHTOWERTI.TTF
p2917
sg20
g21
sbag1
(g8
g3
NtRp2918
(dp2919
g11
g28
sg13
S'Century Schoolbook'
p2920
sg15
I400
sg16
g12
sg17
g12
sg18
VC:\u005cWindows\u005cFonts\u005cSCHLBKI.TTF
p2921
sg20
g21
sbag1
(g8
g3
NtRp2922
(dp2923
g11
g12
sg13
S'Century Schoolbook'
p2924
sg15
I400
sg16
g12
sg17
g12
sg18
VC:\u005cWindows\u005cFonts\u005cCENSCBK.TTF
p2925
sg20
g21
sbag1
(g8
g3
NtRp2926
(dp2927
g11
g28
sg13
S'Source Sans Pro'
p2928
sg15
I900
sg16
g12
sg17
g12
sg18
Vc:\u005cwindows\u005cfonts\u005csourcesanspro-blackit.ttf
p2929
sg20
g21
sbag1
(g8
g3
NtRp2930
(dp2931
g11
g12
sg13
S'Goudy Stout'
p2932
sg15
I400
sg16
g12
sg17
g12
sg18
VC:\u005cWindows\u005cFonts\u005cGOUDYSTO.TTF
p2933
sg20
g21
sbag1
(g8
g3
NtRp2934
(dp2935
g11
g12
sg13
S'Khmer UI'
p2936
sg15
I700
sg16
g12
sg17
g12
sg18
VC:\u005cWindows\u005cFonts\u005cKhmerUIb.ttf
p2937
sg20
g21
sbag1
(g8
g3
NtRp2938
(dp2939
g11
g12
sg13
S'Old English Text MT'
p2940
sg15
I400
sg16
g12
sg17
g12
sg18
Vc:\u005cwindows\u005cfonts\u005coldengl.ttf
p2941
sg20
g21
sbag1
(g8
g3
NtRp2942
(dp2943
g11
g12
sg13
S'Georgia'
p2944
sg15
I700
sg16
g12
sg17
g12
sg18
Vc:\u005cwindows\u005cfonts\u005cgeorgiab.ttf
p2945
sg20
g21
sbag1
(g8
g3
NtRp2946
(dp2947
g11
g12
sg13
S'FangSong'
p2948
sg15
I400
sg16
g12
sg17
g12
sg18
VC:\u005cWindows\u005cFonts\u005csimfang.ttf
p2949
sg20
g21
sbag1
(g8
g3
NtRp2950
(dp2951
g11
g12
sg13
S'Viner Hand ITC'
p2952
sg15
I400
sg16
g12
sg17
g12
sg18
VC:\u005cWindows\u005cFonts\u005cVINERITC.TTF
p2953
sg20
g21
sbag1
(g8
g3
NtRp2954
(dp2955
g11
g12
sg13
S'Niagara Engraved'
p2956
sg15
I400
sg16
g12
sg17
g12
sg18
Vc:\u005cwindows\u005cfonts\u005cniageng.ttf
p2957
sg20
g21
sbag1
(g8
g3
NtRp2958
(dp2959
g11
g12
sg13
S'Liberation Mono'
p2960
sg15
I400
sg16
g12
sg17
g12
sg18
VC:\u005cWindows\u005cFonts\u005cLiberationMono-Regular.ttf
p2961
sg20
g21
sbag1
(g8
g3
NtRp2962
(dp2963
g11
g12
sg13
S'MS Reference Specialty'
p2964
sg15
I400
sg16
g12
sg17
g12
sg18
VC:\u005cWindows\u005cFonts\u005cREFSPCL.TTF
p2965
sg20
g21
sbag1
(g8
g3
NtRp2966
(dp2967
g11
g12
sg13
S'Open Sans'
p2968
sg15
I700
sg16
g12
sg17
g12
sg18
Vc:\u005cwindows\u005cfonts\u005copensans-bold.ttf
p2969
sg20
g21
sbag1
(g8
g3
NtRp2970
(dp2971
g11
g28
sg13
S'Source Sans Pro'
p2972
sg15
I400
sg16
g12
sg17
g12
sg18
Vc:\u005cwindows\u005cfonts\u005csourcesanspro-it.ttf
p2973
sg20
g21
sbag1
(g8
g3
NtRp2974
(dp2975
g11
g12
sg13
S'Liberation Sans Narrow'
p2976
sg15
I700
sg16
g251
sg17
g12
sg18
VC:\u005cWindows\u005cFonts\u005cLiberationSansNarrow-Bold.ttf
p2977
sg20
g21
sbag1
(g8
g3
NtRp2978
(dp2979
g11
g12
sg13
S'Linux Libertine G'
p2980
sg15
I400
sg16
g12
sg17
g12
sg18
VC:\u005cWindows\u005cFonts\u005cLinLibertine_R_G.ttf
p2981
sg20
g21
sbag1
(g8
g3
NtRp2982
(dp2983
g11
g28
sg13
S'Rockwell'
p2984
sg15
I700
sg16
g12
sg17
g12
sg18
VC:\u005cWindows\u005cFonts\u005cROCKBI.TTF
p2985
sg20
g21
sbag1
(g8
g3
NtRp2986
(dp2987
g11
g12
sg13
S'Lucida Sans'
p2988
sg15
I700
sg16
g12
sg17
g12
sg18
Vc:\u005cwindows\u005cfonts\u005clsansd.ttf
p2989
sg20
g21
sbag1
(g8
g3
NtRp2990
(dp2991
g11
g12
sg13
S'Rockwell Condensed'
p2992
sg15
I400
sg16
g251
sg17
g12
sg18
VC:\u005cWindows\u005cFonts\u005cROCC____.TTF
p2993
sg20
g21
sbag1
(g8
g3
NtRp2994
(dp2995
g11
g12
sg13
S'Liberation Sans Narrow'
p2996
sg15
I400
sg16
g251
sg17
g12
sg18
Vc:\u005cwindows\u005cfonts\u005cliberationsansnarrow-regular.ttf
p2997
sg20
g21
sbag1
(g8
g3
NtRp2998
(dp2999
g11
g28
sg13
S'DejaVu Serif'
p3000
sg15
I400
sg16
g12
sg17
g12
sg18
VC:\u005cWindows\u005cFonts\u005cDejaVuSerif-Italic.ttf
p3001
sg20
g21
sbag1
(g8
g3
NtRp3002
(dp3003
g11
g28
sg13
S'Perpetua'
p3004
sg15
I400
sg16
g12
sg17
g12
sg18
VC:\u005cWindows\u005cFonts\u005cPERI____.TTF
p3005
sg20
g21
sbag1
(g8
g3
NtRp3006
(dp3007
g11
g12
sg13
S'MS Outlook'
p3008
sg15
I400
sg16
g12
sg17
g12
sg18
VC:\u005cWindows\u005cFonts\u005cOUTLOOK.TTF
p3009
sg20
g21
sbag1
(g8
g3
NtRp3010
(dp3011
g11
g28
sg13
S'Lucida Bright'
p3012
sg15
I400
sg16
g12
sg17
g12
sg18
Vc:\u005cwindows\u005cfonts\u005clbritei.ttf
p3013
sg20
g21
sbag1
(g8
g3
NtRp3014
(dp3015
g11
g12
sg13
S'Bodoni MT'
p3016
sg15
I400
sg16
g12
sg17
g12
sg18
VC:\u005cWindows\u005cFonts\u005cBOD_R.TTF
p3017
sg20
g21
sbag1
(g8
g3
NtRp3018
(dp3019
g11
g28
sg13
S'High Tower Text'
p3020
sg15
I400
sg16
g12
sg17
g12
sg18
Vc:\u005cwindows\u005cfonts\u005chtowerti.ttf
p3021
sg20
g21
sbag1
(g8
g3
NtRp3022
(dp3023
g11
g12
sg13
S'Perpetua Titling MT'
p3024
sg15
I200
sg16
g12
sg17
g12
sg18
VC:\u005cWindows\u005cFonts\u005cPERTILI.TTF
p3025
sg20
g21
sbag1
(g8
g3
NtRp3026
(dp3027
g11
g12
sg13
S'Caladea'
p3028
sg15
I700
sg16
g12
sg17
g12
sg18
Vc:\u005cwindows\u005cfonts\u005ccaladea-bold.ttf
p3029
sg20
g21
sbag1
(g8
g3
NtRp3030
(dp3031
g11
g12
sg13
S'Lucida Bright'
p3032
sg15
I700
sg16
g12
sg17
g12
sg18
Vc:\u005cwindows\u005cfonts\u005clbrited.ttf
p3033
sg20
g21
sbag1
(g8
g3
NtRp3034
(dp3035
g11
g12
sg13
S'Caladea'
p3036
sg15
I400
sg16
g12
sg17
g12
sg18
Vc:\u005cwindows\u005cfonts\u005ccaladea-regular.ttf
p3037
sg20
g21
sbag1
(g8
g3
NtRp3038
(dp3039
g11
g12
sg13
S'DejaVu Sans'
p3040
sg15
I200
sg16
g12
sg17
g12
sg18
Vc:\u005cwindows\u005cfonts\u005cdejavusans-extralight.ttf
p3041
sg20
g21
sbag1
(g8
g3
NtRp3042
(dp3043
g11
g12
sg13
S'Gill Sans MT Condensed'
p3044
sg15
I400
sg16
g251
sg17
g12
sg18
VC:\u005cWindows\u005cFonts\u005cGILC____.TTF
p3045
sg20
g21
sbag1
(g8
g3
NtRp3046
(dp3047
g11
g12
sg13
S'Goudy Old Style'
p3048
sg15
I400
sg16
g12
sg17
g12
sg18
VC:\u005cWindows\u005cFonts\u005cGOUDOS.TTF
p3049
sg20
g21
sbag1
(g8
g3
NtRp3050
(dp3051
g11
g28
sg13
S'Century Gothic'
p3052
sg15
I700
sg16
g12
sg17
g12
sg18
VC:\u005cWindows\u005cFonts\u005cGOTHICBI.TTF
p3053
sg20
g21
sbag1
(g8
g3
NtRp3054
(dp3055
g11
g12
sg13
S'Bradley Hand ITC'
p3056
sg15
I400
sg16
g12
sg17
g12
sg18
Vc:\u005cwindows\u005cfonts\u005cbradhitc.ttf
p3057
sg20
g21
sbag1
(g8
g3
NtRp3058
(dp3059
g11
g12
sg13
S'Lucida Console'
p3060
sg15
I400
sg16
g12
sg17
g12
sg18
VC:\u005cWindows\u005cFonts\u005clucon.ttf
p3061
sg20
g21
sbag1
(g8
g3
NtRp3062
(dp3063
g11
g12
sg13
S'Source Sans Pro'
p3064
sg15
I400
sg16
g12
sg17
g12
sg18
Vc:\u005cwindows\u005cfonts\u005csourcesanspro-regular.ttf
p3065
sg20
g21
sbag1
(g8
g3
NtRp3066
(dp3067
g11
g12
sg13
S'Century'
p3068
sg15
I400
sg16
g12
sg17
g12
sg18
VC:\u005cWindows\u005cFonts\u005cCENTURY.TTF
p3069
sg20
g21
sbag1
(g8
g3
NtRp3070
(dp3071
g11
g12
sg13
S'Britannic Bold'
p3072
sg15
I700
sg16
g12
sg17
g12
sg18
VC:\u005cWindows\u005cFonts\u005cBRITANIC.TTF
p3073
sg20
g21
sbag1
(g8
g3
NtRp3074
(dp3075
g11
g12
sg13
S'Old English Text MT'
p3076
sg15
I400
sg16
g12
sg17
g12
sg18
VC:\u005cWindows\u005cFonts\u005cOLDENGL.TTF
p3077
sg20
g21
sbag1
(g8
g3
NtRp3078
(dp3079
g11
g12
sg13
S'Raavi'
p3080
sg15
I400
sg16
g12
sg17
g12
sg18
VC:\u005cWindows\u005cFonts\u005craavi.ttf
p3081
sg20
g21
sbag1
(g8
g3
NtRp3082
(dp3083
g11
g12
sg13
S'Vladimir Script'
p3084
sg15
I400
sg16
g12
sg17
g12
sg18
Vc:\u005cwindows\u005cfonts\u005cvladimir.ttf
p3085
sg20
g21
sbag1
(g8
g3
NtRp3086
(dp3087
g11
g12
sg13
S'Arial'
p3088
sg15
I700
sg16
g251
sg17
g12
sg18
VC:\u005cWindows\u005cFonts\u005cARIALNB.TTF
p3089
sg20
g21
sbag1
(g8
g3
NtRp3090
(dp3091
g11
g12
sg13
S'Eras Bold ITC'
p3092
sg15
I700
sg16
g12
sg17
g12
sg18
Vc:\u005cwindows\u005cfonts\u005cerasbd.ttf
p3093
sg20
g21
sbag1
(g8
g3
NtRp3094
(dp3095
g11
g12
sg13
S'Bookshelf Symbol 7'
p3096
sg15
I400
sg16
g12
sg17
g12
sg18
Vc:\u005cwindows\u005cfonts\u005cbssym7.ttf
p3097
sg20
g21
sbag1
(g8
g3
NtRp3098
(dp3099
g11
g12
sg13
S'Liberation Serif'
p3100
sg15
I700
sg16
g12
sg17
g12
sg18
Vc:\u005cwindows\u005cfonts\u005cliberationserif-bold.ttf
p3101
sg20
g21
sbag1
(g8
g3
NtRp3102
(dp3103
g11
g12
sg13
S'Plantagenet Cherokee'
p3104
sg15
I400
sg16
g12
sg17
g12
sg18
VC:\u005cWindows\u005cFonts\u005cplantc.ttf
p3105
sg20
g21
sbag1
(g8
g3
NtRp3106
(dp3107
g11
g12
sg13
S'Centaur'
p3108
sg15
I400
sg16
g12
sg17
g12
sg18
VC:\u005cWindows\u005cFonts\u005cCENTAUR.TTF
p3109
sg20
g21
sbag1
(g8
g3
NtRp3110
(dp3111
g11
g12
sg13
S'Iskoola Pota'
p3112
sg15
I700
sg16
g12
sg17
g12
sg18
VC:\u005cWindows\u005cFonts\u005ciskpotab.ttf
p3113
sg20
g21
sbag1
(g8
g3
NtRp3114
(dp3115
g11
g12
sg13
S'Times New Roman'
p3116
sg15
I700
sg16
g12
sg17
g12
sg18
VC:\u005cWindows\u005cFonts\u005ctimesbd.ttf
p3117
sg20
g21
sbag1
(g8
g3
NtRp3118
(dp3119
g11
g12
sg13
S'Candara'
p3120
sg15
I400
sg16
g12
sg17
g12
sg18
VC:\u005cWindows\u005cFonts\u005cCandara.ttf
p3121
sg20
g21
sbag1
(g8
g3
NtRp3122
(dp3123
g11
g28
sg13
S'Lucida Handwriting'
p3124
sg15
I400
sg16
g12
sg17
g12
sg18
Vc:\u005cwindows\u005cfonts\u005clhandw.ttf
p3125
sg20
g21
sbag1
(g8
g3
NtRp3126
(dp3127
g11
g12
sg13
S'Pristina'
p3128
sg15
I400
sg16
g12
sg17
g12
sg18
VC:\u005cWindows\u005cFonts\u005cPRISTINA.TTF
p3129
sg20
g21
sbag1
(g8
g3
NtRp3130
(dp3131
g11
g12
sg13
S'DejaVu Sans'
p3132
sg15
I400
sg16
g251
sg17
g12
sg18
Vc:\u005cwindows\u005cfonts\u005cdejavusanscondensed.ttf
p3133
sg20
g21
sbag1
(g8
g3
NtRp3134
(dp3135
g11
g12
sg13
S'Rockwell Extra Bold'
p3136
sg15
I700
sg16
g12
sg17
g12
sg18
Vc:\u005cwindows\u005cfonts\u005crockeb.ttf
p3137
sg20
g21
sbag1
(g8
g3
NtRp3138
(dp3139
g11
g12
sg13
S'Rockwell'
p3140
sg15
I700
sg16
g12
sg17
g12
sg18
Vc:\u005cwindows\u005cfonts\u005crockb.ttf
p3141
sg20
g21
sbag1
(g8
g3
NtRp3142
(dp3143
g11
g12
sg13
S'Playbill'
p3144
sg15
I400
sg16
g12
sg17
g12
sg18
Vc:\u005cwindows\u005cfonts\u005cplaybill.ttf
p3145
sg20
g21
sbag1
(g8
g3
NtRp3146
(dp3147
g11
g12
sg13
S'Lucida Sans Typewriter'
p3148
sg15
I700
sg16
g12
sg17
g12
sg18
Vc:\u005cwindows\u005cfonts\u005cltypeb.ttf
p3149
sg20
g21
sbag1
(g8
g3
NtRp3150
(dp3151
g11
g28
sg13
S'Gentium Basic'
p3152
sg15
I700
sg16
g12
sg17
g12
sg18
VC:\u005cWindows\u005cFonts\u005cGenBasBI.ttf
p3153
sg20
g21
sbag1
(g8
g3
NtRp3154
(dp3155
g11
g28
sg13
S'Source Sans Pro'
p3156
sg15
I700
sg16
g12
sg17
g12
sg18
VC:\u005cWindows\u005cFonts\u005cSourceSansPro-BoldIt.ttf
p3157
sg20
g21
sbag1
(g8
g3
NtRp3158
(dp3159
g11
g28
sg13
S'Liberation Mono'
p3160
sg15
I700
sg16
g12
sg17
g12
sg18
Vc:\u005cwindows\u005cfonts\u005cliberationmono-bolditalic.ttf
p3161
sg20
g21
sbag1
(g8
g3
NtRp3162
(dp3163
g11
g12
sg13
S'Bodoni MT'
p3164
sg15
I400
sg16
g12
sg17
g12
sg18
Vc:\u005cwindows\u005cfonts\u005cbod_r.ttf
p3165
sg20
g21
sbag1
(g8
g3
NtRp3166
(dp3167
g11
g12
sg13
S'Bodoni MT'
p3168
sg15
I400
sg16
g12
sg17
g12
sg18
Vc:\u005cwindows\u005cfonts\u005cbod_pstc.ttf
p3169
sg20
g21
sbag1
(g8
g3
NtRp3170
(dp3171
g11
g28
sg13
S'Liberation Sans Narrow'
p3172
sg15
I400
sg16
g251
sg17
g12
sg18
VC:\u005cWindows\u005cFonts\u005cLiberationSansNarrow-Italic.ttf
p3173
sg20
g21
sbag1
(g8
g3
NtRp3174
(dp3175
g11
g12
sg13
S'Freestyle Script'
p3176
sg15
I400
sg16
g12
sg17
g12
sg18
VC:\u005cWindows\u005cFonts\u005cFREESCPT.TTF
p3177
sg20
g21
sbag1
(g8
g3
NtRp3178
(dp3179
g11
g28
sg13
S'Linux Biolinum G'
p3180
sg15
I400
sg16
g12
sg17
g12
sg18
Vc:\u005cwindows\u005cfonts\u005clinbiolinum_ri_g.ttf
p3181
sg20
g21
sbag1
(g8
g3
NtRp3182
(dp3183
g11
g12
sg13
S'Gabriola'
p3184
sg15
I400
sg16
g12
sg17
g12
sg18
Vc:\u005cwindows\u005cfonts\u005cgabriola.ttf
p3185
sg20
g21
sbag1
(g8
g3
NtRp3186
(dp3187
g11
g28
sg13
S'Perpetua'
p3188
sg15
I700
sg16
g12
sg17
g12
sg18
Vc:\u005cwindows\u005cfonts\u005cperbi___.ttf
p3189
sg20
g21
sbag1
(g8
g3
NtRp3190
(dp3191
g11
g28
sg13
S'Caladea'
p3192
sg15
I400
sg16
g12
sg17
g12
sg18
Vc:\u005cwindows\u005cfonts\u005ccaladea-italic.ttf
p3193
sg20
g21
sbag1
(g8
g3
NtRp3194
(dp3195
g11
g12
sg13
S'Perpetua Titling MT'
p3196
sg15
I700
sg16
g12
sg17
g12
sg18
VC:\u005cWindows\u005cFonts\u005cPERTIBD.TTF
p3197
sg20
g21
sbag1
(g8
g3
NtRp3198
(dp3199
g11
g12
sg13
S'Ravie'
p3200
sg15
I400
sg16
g12
sg17
g12
sg18
Vc:\u005cwindows\u005cfonts\u005cravie.ttf
p3201
sg20
g21
sbag1
(g8
g3
NtRp3202
(dp3203
g11
g28
sg13
S'Liberation Sans Narrow'
p3204
sg15
I400
sg16
g251
sg17
g12
sg18
Vc:\u005cwindows\u005cfonts\u005cliberationsansnarrow-italic.ttf
p3205
sg20
g21
sbag1
(g8
g3
NtRp3206
(dp3207
g11
g12
sg13
S'Source Sans Pro'
p3208
sg15
I900
sg16
g12
sg17
g12
sg18
Vc:\u005cwindows\u005cfonts\u005csourcesanspro-black.ttf
p3209
sg20
g21
sbag1
(g8
g3
NtRp3210
(dp3211
g11
g28
sg13
S'Source Sans Pro'
p3212
sg15
I700
sg16
g12
sg17
g12
sg18
Vc:\u005cwindows\u005cfonts\u005csourcesanspro-boldit.ttf
p3213
sg20
g21
sbag1
(g8
g3
NtRp3214
(dp3215
g11
g28
sg13
S'Lucida Bright'
p3216
sg15
I700
sg16
g12
sg17
g12
sg18
VC:\u005cWindows\u005cFonts\u005cLBRITEDI.TTF
p3217
sg20
g21
sbag1
(g8
g3
NtRp3218
(dp3219
g11
g12
sg13
S'Gentium Book Basic'
p3220
sg15
I700
sg16
g12
sg17
g12
sg18
Vc:\u005cwindows\u005cfonts\u005cgenbkbasb.ttf
p3221
sg20
g21
sbag1
(g8
g3
NtRp3222
(dp3223
g11
g45
sg13
S'DejaVu Sans Mono'
p3224
sg15
I700
sg16
g12
sg17
g12
sg18
VC:\u005cWindows\u005cFonts\u005cDejaVuSansMono-BoldOblique.ttf
p3225
sg20
g21
sbag1
(g8
g3
NtRp3226
(dp3227
g11
g12
sg13
S'DejaVu Sans'
p3228
sg15
I700
sg16
g251
sg17
g12
sg18
VC:\u005cWindows\u005cFonts\u005cDejaVuSansCondensed-Bold.ttf
p3229
sg20
g21
sbag1
(g8
g3
NtRp3230
(dp3231
g11
g28
sg13
S'Liberation Sans'
p3232
sg15
I400
sg16
g12
sg17
g12
sg18
VC:\u005cWindows\u005cFonts\u005cLiberationSans-Italic.ttf
p3233
sg20
g21
sbag1
(g8
g3
NtRp3234
(dp3235
g11
g12
sg13
S'Script MT Bold'
p3236
sg15
I700
sg16
g12
sg17
g12
sg18
Vc:\u005cwindows\u005cfonts\u005cscriptbl.ttf
p3237
sg20
g21
sbag1
(g8
g3
NtRp3238
(dp3239
g11
g28
sg13
S'Century Gothic'
p3240
sg15
I400
sg16
g12
sg17
g12
sg18
VC:\u005cWindows\u005cFonts\u005cGOTHICI.TTF
p3241
sg20
g21
sbag1
(g8
g3
NtRp3242
(dp3243
g11
g12
sg13
S'Maiandra GD'
p3244
sg15
I400
sg16
g12
sg17
g12
sg18
VC:\u005cWindows\u005cFonts\u005cMAIAN.TTF
p3245
sg20
g21
sbag1
(g8
g3
NtRp3246
(dp3247
g11
g28
sg13
S'Calisto MT'
p3248
sg15
I700
sg16
g12
sg17
g12
sg18
Vc:\u005cwindows\u005cfonts\u005ccalistbi.ttf
p3249
sg20
g21
sbag1
(g8
g3
NtRp3250
(dp3251
g11
g12
sg13
S'Tw Cen MT Condensed'
p3252
sg15
I700
sg16
g251
sg17
g12
sg18
VC:\u005cWindows\u005cFonts\u005cTCCB____.TTF
p3253
sg20
g21
sbag1
(g8
g3
NtRp3254
(dp3255
g11
g28
sg13
S'Harlow Solid Italic'
p3256
sg15
I400
sg16
g12
sg17
g12
sg18
VC:\u005cWindows\u005cFonts\u005cHARLOWSI.TTF
p3257
sg20
g21
sbag1
(g8
g3
NtRp3258
(dp3259
g11
g12
sg13
S'Khmer UI'
p3260
sg15
I400
sg16
g12
sg17
g12
sg18
VC:\u005cWindows\u005cFonts\u005cKhmerUI.ttf
p3261
sg20
g21
sbag1
(g8
g3
NtRp3262
(dp3263
g11
g28
sg13
S'Bookman Old Style'
p3264
sg15
I700
sg16
g12
sg17
g12
sg18
VC:\u005cWindows\u005cFonts\u005cBOOKOSBI.TTF
p3265
sg20
g21
sbag1
(g8
g3
NtRp3266
(dp3267
g11
g12
sg13
S'Broadway'
p3268
sg15
I400
sg16
g12
sg17
g12
sg18
Vc:\u005cwindows\u005cfonts\u005cbroadw.ttf
p3269
sg20
g21
sbag1
(g8
g3
NtRp3270
(dp3271
g11
g12
sg13
S'Berlin Sans FB'
p3272
sg15
I700
sg16
g12
sg17
g12
sg18
Vc:\u005cwindows\u005cfonts\u005cbrlnsb.ttf
p3273
sg20
g21
sbag1
(g8
g3
NtRp3274
(dp3275
g11
g12
sg13
S'Bell MT'
p3276
sg15
I700
sg16
g12
sg17
g12
sg18
Vc:\u005cwindows\u005cfonts\u005cbellb.ttf
p3277
sg20
g21
sbag1
(g8
g3
NtRp3278
(dp3279
g11
g28
sg13
S'Carlito'
p3280
sg15
I700
sg16
g12
sg17
g12
sg18
VC:\u005cWindows\u005cFonts\u005cCarlito-BoldItalic.ttf
p3281
sg20
g21
sbag1
(g8
g3
NtRp3282
(dp3283
g11
g45
sg13
S'DejaVu Sans Mono'
p3284
sg15
I400
sg16
g12
sg17
g12
sg18
Vc:\u005cwindows\u005cfonts\u005cdejavusansmono-oblique.ttf
p3285
sg20
g21
sbag1
(g8
g3
NtRp3286
(dp3287
g11
g28
sg13
S'Lucida Calligraphy'
p3288
sg15
I400
sg16
g12
sg17
g12
sg18
VC:\u005cWindows\u005cFonts\u005cLCALLIG.TTF
p3289
sg20
g21
sbag1
(g8
g3
NtRp3290
(dp3291
g11
g28
sg13
S'Bodoni MT'
p3292
sg15
I400
sg16
g251
sg17
g12
sg18
VC:\u005cWindows\u005cFonts\u005cBOD_CI.TTF
p3293
sg20
g21
sbag1
(g8
g3
NtRp3294
(dp3295
g11
g12
sg13
S'Bodoni MT'
p3296
sg15
I400
sg16
g12
sg17
g12
sg18
VC:\u005cWindows\u005cFonts\u005cBOD_PSTC.TTF
p3297
sg20
g21
sbag1
(g8
g3
NtRp3298
(dp3299
g11
g12
sg13
S'Poor Richard'
p3300
sg15
I400
sg16
g12
sg17
g12
sg18
Vc:\u005cwindows\u005cfonts\u005cpoorich.ttf
p3301
sg20
g21
sbag1
(g8
g3
NtRp3302
(dp3303
g11
g28
sg13
S'Bodoni MT'
p3304
sg15
I700
sg16
g251
sg17
g12
sg18
Vc:\u005cwindows\u005cfonts\u005cbod_cbi.ttf
p3305
sg20
g21
sbag1
(g8
g3
NtRp3306
(dp3307
g11
g12
sg13
S'Candara'
p3308
sg15
I700
sg16
g12
sg17
g12
sg18
VC:\u005cWindows\u005cFonts\u005cCandarab.ttf
p3309
sg20
g21
sbag1
(g8
g3
NtRp3310
(dp3311
g11
g12
sg13
S'Stencil'
p3312
sg15
I400
sg16
g12
sg17
g12
sg18
Vc:\u005cwindows\u005cfonts\u005cstencil.ttf
p3313
sg20
g21
sbag1
(g8
g3
NtRp3314
(dp3315
g11
g12
sg13
S'Ravie'
p3316
sg15
I400
sg16
g12
sg17
g12
sg18
VC:\u005cWindows\u005cFonts\u005cRAVIE.TTF
p3317
sg20
g21
sbasS'defaultFamily'
p3318
(dp3319
Vafm
p3320
VHelvetica
p3321
sVttf
p3322
VBitstream Vera Sans
p3323
ssS'ttffiles'
p3324
(lp3325
g19
ag25
ag30
ag34
ag38
ag42
ag47
ag51
ag55
ag59
ag63
ag67
ag71
ag75
ag79
ag83
ag87
ag91
ag95
ag99
ag103
ag107
ag111
ag115
ag119
ag123
ag127
ag131
ag135
ag139
ag143
ag147
ag151
ag155
ag159
ag163
ag167
ag171
ag175
ag179
ag183
ag187
ag191
ag195
ag199
ag203
ag207
ag211
ag215
ag219
ag223
ag227
ag231
aVc:\u005cwindows\u005cfonts\u005ctaileb.ttf
p3326
ag235
ag239
ag243
ag247
ag252
ag256
ag260
ag264
ag268
ag272
ag276
ag280
ag284
ag288
ag292
ag296
ag300
ag304
ag308
ag312
ag316
ag320
ag324
ag328
ag332
ag336
ag340
ag344
ag348
ag352
ag356
ag360
ag364
ag368
ag372
ag376
ag380
ag384
ag388
ag392
ag396
ag400
ag404
ag408
ag412
ag416
aVc:\u005cwindows\u005cfonts\u005ckokilab.ttf
p3327
ag420
ag424
ag428
ag432
ag436
ag440
ag444
ag448
ag452
ag456
ag460
ag464
ag468
ag472
ag476
aVc:\u005cwindows\u005cfonts\u005cverdanaz.ttf
p3328
ag480
ag484
ag488
ag492
ag496
ag500
ag504
ag508
ag512
ag516
ag520
ag524
ag528
ag532
ag536
ag540
ag544
ag548
ag552
ag556
ag560
ag564
ag568
ag572
ag576
ag580
ag584
ag588
ag592
ag596
ag600
ag604
ag608
ag612
ag616
ag620
ag624
ag628
ag632
ag636
ag640
ag644
aVC:\u005cWindows\u005cFonts\u005csegoeui.ttf
p3329
ag648
ag652
ag656
ag660
ag664
ag668
ag672
ag676
aVc:\u005cwindows\u005cfonts\u005cvrindab.ttf
p3330
ag680
aVC:\u005cWindows\u005cFonts\u005ctrebucbi.ttf
p3331
ag684
ag688
ag692
ag696
ag700
ag704
ag708
ag712
ag716
ag720
ag724
aVC:\u005cWindows\u005cFonts\u005cmsyh.ttf
p3332
ag728
ag732
ag736
ag740
ag744
ag748
ag752
ag756
ag760
ag764
ag768
ag772
aVC:\u005cWindows\u005cFonts\u005cmsjhbd.ttf
p3333
aVc:\u005cwindows\u005cfonts\u005cutsaahb.ttf
p3334
ag776
ag780
ag784
ag788
ag792
ag796
ag800
ag804
ag808
ag812
ag816
ag820
ag824
ag828
ag832
ag836
ag840
ag844
ag848
ag852
ag856
ag860
ag864
ag868
ag872
ag876
ag880
ag884
ag888
ag892
ag896
ag900
ag904
aVC:\u005cWindows\u005cFonts\u005cbrowab.ttf
p3335
ag908
ag912
ag916
ag920
ag924
ag928
ag932
ag936
ag940
ag944
ag948
ag952
ag956
ag960
ag964
ag968
ag972
ag976
ag980
ag984
ag988
ag992
ag996
ag1000
ag1004
aVc:\u005cwindows\u005cfonts\u005cupckbi.ttf
p3336
ag1008
ag1012
ag1016
ag1020
ag1024
ag1028
ag1032
ag1036
ag1040
ag1044
ag1048
ag1052
ag1056
ag1060
ag1064
ag1068
ag1072
ag1076
ag1080
ag1084
ag1088
ag1092
aVC:\u005cWindows\u005cFonts\u005cverdanai.ttf
p3337
ag1096
aVc:\u005cwindows\u005cfonts\u005csegoepr.ttf
p3338
aVc:\u005cwindows\u005cfonts\u005cmicross.ttf
p3339
ag1100
ag1104
ag1108
ag1112
aVc:\u005cwindows\u005cfonts\u005ckalingab.ttf
p3340
ag1116
ag1120
ag1124
ag1128
ag1132
ag1136
ag1140
ag1144
ag1148
ag1152
ag1156
ag1160
ag1164
ag1168
ag1172
aVc:\u005cwindows\u005cfonts\u005cl_10646.ttf
p3341
aVC:\u005cWindows\u005cFonts\u005cmriamc.ttf
p3342
ag1176
aVC:\u005cWindows\u005cFonts\u005cseguisb.ttf
p3343
ag1180
ag1184
ag1188
ag1192
ag1196
ag1200
ag1204
ag1208
aVC:\u005cWindows\u005cFonts\u005cgautamib.ttf
p3344
ag1212
ag1216
ag1220
ag1224
ag1228
aVC:\u005cWindows\u005cFonts\u005ctahomabd.ttf
p3345
ag1232
ag1236
ag1240
ag1244
ag1248
ag1252
ag1256
ag1260
aVc:\u005cwindows\u005cfonts\u005csegoeuii.ttf
p3346
ag1264
aVc:\u005cwindows\u005cfonts\u005ckokilai.ttf
p3347
ag1268
ag1272
ag1276
ag1280
ag1284
ag1288
ag1292
ag1296
ag1300
ag1304
ag1308
ag1312
ag1316
ag1320
ag1324
ag1328
aVc:\u005cwindows\u005cfonts\u005ccour.ttf
p3348
aVC:\u005cWindows\u005cFonts\u005clatha.ttf
p3349
ag1332
ag1336
ag1340
ag1344
ag1348
ag1352
ag1356
ag1360
ag1364
ag1368
ag1372
ag1376
ag1380
ag1384
ag1388
ag1392
ag1396
aVC:\u005cWindows\u005cFonts\u005ccalibrib.ttf
p3350
ag1400
ag1404
ag1408
ag1412
ag1416
ag1420
ag1424
ag1428
aVC:\u005cWindows\u005cFonts\u005cupclb.ttf
p3351
ag1432
ag1436
ag1440
ag1444
ag1448
ag1452
ag1456
ag1460
ag1464
ag1468
aVC:\u005cWindows\u005cFonts\u005cupcdb.ttf
p3352
ag1472
ag1476
ag1480
ag1484
ag1488
ag1492
ag1496
ag1500
ag1504
ag1508
ag1512
ag1516
ag1520
ag1524
ag1528
ag1532
ag1536
ag1540
ag1544
ag1548
ag1552
ag1556
ag1560
ag1564
aVC:\u005cWindows\u005cFonts\u005cdaunpenh.ttf
p3353
ag1568
ag1572
ag1576
ag1580
ag1584
ag1588
ag1592
aVc:\u005cwindows\u005cfonts\u005ckokilabi.ttf
p3354
ag1596
ag1600
ag1604
aVC:\u005cWindows\u005cFonts\u005cbrowauz.ttf
p3355
ag1608
ag1612
ag1616
ag1620
ag1624
ag1628
ag1632
ag1636
aVc:\u005cwindows\u005cfonts\u005ccourbd.ttf
p3356
ag1640
aVc:\u005cwindows\u005cfonts\u005cconsola.ttf
p3357
ag1644
ag1648
aVc:\u005cwindows\u005cfonts\u005cshrutib.ttf
p3358
ag1652
aVc:\u005cwindows\u005cfonts\u005copens___.ttf
p3359
ag1656
aVc:\u005cwindows\u005cfonts\u005cbrowaui.ttf
p3360
ag1660
ag1664
ag1668
aVc:\u005cwindows\u005cfonts\u005cframdit.ttf
p3361
ag1672
ag1676
ag1680
ag1684
ag1688
aVC:\u005cWindows\u005cFonts\u005cupcii.ttf
p3362
ag1692
aVc:\u005cwindows\u005cfonts\u005cmangalb.ttf
p3363
ag1696
ag1700
ag1704
ag1708
ag1712
ag1716
aVc:\u005cwindows\u005cfonts\u005cupcjbi.ttf
p3364
ag1720
aVC:\u005cWindows\u005cFonts\u005cgeorgiaz.ttf
p3365
ag1724
ag1728
ag1732
ag1736
ag1740
ag1744
aVC:\u005cWindows\u005cFonts\u005carialbi.ttf
p3366
aVc:\u005cwindows\u005cfonts\u005cupcebi.ttf
p3367
ag1748
ag1752
ag1756
ag1760
ag1764
ag1768
ag1772
ag1776
ag1780
aVC:\u005cWindows\u005cFonts\u005ccambriai.ttf
p3368
ag1784
ag1788
aVC:\u005cWindows\u005cFonts\u005cupcdbi.ttf
p3369
ag1792
ag1796
ag1800
ag1804
ag1808
aVc:\u005cwindows\u005cfonts\u005cupcibi.ttf
p3370
ag1812
ag1816
ag1820
ag1824
ag1828
ag1832
ag1836
ag1840
aVc:\u005cwindows\u005cfonts\u005cconstanb.ttf
p3371
ag1844
ag1848
ag1852
aVc:\u005cwindows\u005cfonts\u005cgautami.ttf
p3372
ag1856
ag1860
ag1864
ag1868
ag1872
aVC:\u005cWindows\u005cFonts\u005cvijayab.ttf
p3373
ag1876
ag1880
ag1884
aVc:\u005cwindows\u005cfonts\u005ccalibriz.ttf
p3374
ag1888
ag1892
ag1896
ag1900
ag1904
ag1908
aVC:\u005cWindows\u005cFonts\u005cangsauz.ttf
p3375
ag1912
aVC:\u005cWindows\u005cFonts\u005ctrebucbd.ttf
p3376
aVc:\u005cwindows\u005cfonts\u005cupcib.ttf
p3377
ag1916
aVC:\u005cWindows\u005cFonts\u005ccouri.ttf
p3378
ag1920
aVC:\u005cWindows\u005cFonts\u005ccordiauz.ttf
p3379
ag1924
aVc:\u005cwindows\u005cfonts\u005ccordiab.ttf
p3380
aVc:\u005cwindows\u005cfonts\u005ceuphemia.ttf
p3381
ag1928
aVc:\u005cwindows\u005cfonts\u005cangsab.ttf
p3382
ag1932
ag1936
ag1940
ag1944
aVc:\u005cwindows\u005cfonts\u005cconstanz.ttf
p3383
ag1948
aVC:\u005cWindows\u005cFonts\u005caparaj.ttf
p3384
ag1952
ag1956
ag1960
aVC:\u005cWindows\u005cFonts\u005csylfaen.ttf
p3385
ag1964
ag1968
ag1972
ag1976
ag1980
ag1984
ag1988
ag1992
ag1996
ag2000
aVC:\u005cWindows\u005cFonts\u005csimpbdo.ttf
p3386
ag2004
ag2008
aVC:\u005cWindows\u005cFonts\u005ctungab.ttf
p3387
ag2012
aVC:\u005cWindows\u005cFonts\u005cmriam.ttf
p3388
ag2016
ag2020
aVC:\u005cWindows\u005cFonts\u005ccomicbd.ttf
p3389
ag2024
ag2028
aVC:\u005cWindows\u005cFonts\u005ciskpota.ttf
p3390
ag2032
ag2036
ag2040
ag2044
ag2049
ag2053
aVc:\u005cwindows\u005cfonts\u005cmsyi.ttf
p3391
ag2057
aVC:\u005cWindows\u005cFonts\u005csimkai.ttf
p3392
ag2061
aVC:\u005cWindows\u005cFonts\u005ctradbdo.ttf
p3393
ag2065
aVC:\u005cWindows\u005cFonts\u005csimhei.ttf
p3394
aVC:\u005cWindows\u005cFonts\u005cbrowai.ttf
p3395
ag2069
ag2073
ag2077
aVC:\u005cWindows\u005cFonts\u005cupcji.ttf
p3396
ag2081
ag2085
aVC:\u005cWindows\u005cFonts\u005carialbd.ttf
p3397
ag2089
ag2093
ag2097
ag2101
ag2105
ag2109
aVc:\u005cwindows\u005cfonts\u005cangsa.ttf
p3398
aVc:\u005cwindows\u005cfonts\u005ccalibril.ttf
p3399
ag2113
ag2117
aVC:\u005cWindows\u005cFonts\u005cupcel.ttf
p3400
ag2121
ag2125
ag2129
ag2133
ag2137
aVC:\u005cWindows\u005cFonts\u005cupcjl.ttf
p3401
ag2141
aVC:\u005cWindows\u005cFonts\u005cupcil.ttf
p3402
ag2145
ag2149
ag2153
ag2157
ag2161
ag2165
ag2169
ag2173
ag2177
ag2181
ag2185
ag2189
ag2193
ag2197
ag2201
ag2205
ag2209
ag2213
ag2217
ag2221
ag2225
ag2229
ag2233
ag2237
aVc:\u005cwindows\u005cfonts\u005caparajb.ttf
p3403
aVC:\u005cWindows\u005cFonts\u005cdavidbd.ttf
p3404
aVc:\u005cwindows\u005cfonts\u005cariblk.ttf
p3405
ag2241
ag2245
ag2249
ag2253
ag2257
ag2261
aVc:\u005cwindows\u005cfonts\u005craavib.ttf
p3406
ag2265
ag2269
ag2273
ag2277
ag2281
ag2285
ag2289
ag2293
aVC:\u005cWindows\u005cFonts\u005ctrebuc.ttf
p3407
ag2297
ag2301
ag2305
aVC:\u005cWindows\u005cFonts\u005cconsolab.ttf
p3408
ag2309
ag2313
ag2317
ag2321
ag2325
ag2329
ag2333
aVc:\u005cwindows\u005cfonts\u005cupcll.ttf
p3409
ag2337
ag2341
ag2345
ag2349
aVc:\u005cwindows\u005cfonts\u005ccorbeli.ttf
p3410
ag2353
ag2357
ag2361
ag2365
ag2369
ag2373
ag2377
aVc:\u005cwindows\u005cfonts\u005ccalibrii.ttf
p3411
aVc:\u005cwindows\u005cfonts\u005ctimesi.ttf
p3412
ag2381
aVc:\u005cwindows\u005cfonts\u005cupcfl.ttf
p3413
ag2385
ag2389
ag2393
aVC:\u005cWindows\u005cFonts\u005ccourbi.ttf
p3414
aVC:\u005cWindows\u005cFonts\u005ccorbelb.ttf
p3415
ag2397
aVc:\u005cwindows\u005cfonts\u005cmsuighur.ttf
p3416
aVc:\u005cwindows\u005cfonts\u005cupcfb.ttf
p3417
aVC:\u005cWindows\u005cFonts\u005cpalai.ttf
p3418
ag2401
ag2405
ag2409
aVC:\u005cWindows\u005cFonts\u005cupckb.ttf
p3419
ag2413
ag2417
ag2421
ag2425
ag2429
ag2433
ag2437
ag2441
ag2445
ag2449
ag2453
aVC:\u005cWindows\u005cFonts\u005cnyala.ttf
p3420
ag2457
aVc:\u005cwindows\u005cfonts\u005cmalgunbd.ttf
p3421
aVc:\u005cwindows\u005cfonts\u005cnrkis.ttf
p3422
ag2461
ag2465
ag2469
aVc:\u005cwindows\u005cfonts\u005cntailu.ttf
p3423
aVc:\u005cwindows\u005cfonts\u005ckartikab.ttf
p3424
aVc:\u005cwindows\u005cfonts\u005cdavid.ttf
p3425
aVC:\u005cWindows\u005cFonts\u005ccalibrili.ttf
p3426
ag2473
ag2477
ag2481
aVC:\u005cWindows\u005cFonts\u005cbrowau.ttf
p3427
ag2485
ag2489
ag2493
aVc:\u005cwindows\u005cfonts\u005cupcfbi.ttf
p3428
aVc:\u005cwindows\u005cfonts\u005cleelawdb.ttf
p3429
ag2497
ag2501
ag2505
aVc:\u005cwindows\u005cfonts\u005cwebdings.ttf
p3430
ag2509
aVC:\u005cWindows\u005cFonts\u005cupclbi.ttf
p3431
aVC:\u005cWindows\u005cFonts\u005candlso.ttf
p3432
aVC:\u005cWindows\u005cFonts\u005csegoeuiz.ttf
p3433
ag2513
ag2517
ag2521
ag2525
aVC:\u005cWindows\u005cFonts\u005cupcjb.ttf
p3434
aVc:\u005cwindows\u005cfonts\u005cconsolai.ttf
p3435
ag2529
ag2533
aVc:\u005cwindows\u005cfonts\u005cmsjh.ttf
p3436
aVc:\u005cwindows\u005cfonts\u005cgeorgia.ttf
p3437
ag2537
ag2541
ag2545
ag2549
ag2553
ag2557
aVc:\u005cwindows\u005cfonts\u005cupcli.ttf
p3438
aVc:\u005cwindows\u005cfonts\u005cmonbaiti.ttf
p3439
ag2561
ag2565
aVc:\u005cwindows\u005cfonts\u005ckaiu.ttf
p3440
ag2569
ag2573
aVc:\u005cwindows\u005cfonts\u005ccorbel.ttf
p3441
ag2577
ag2581
ag2585
aVc:\u005cwindows\u005cfonts\u005ckokila.ttf
p3442
aVC:\u005cWindows\u005cFonts\u005cutsaahi.ttf
p3443
aVC:\u005cWindows\u005cFonts\u005cwingding.ttf
p3444
ag2589
ag2593
ag2597
aVc:\u005cwindows\u005cfonts\u005cmajallab.ttf
p3445
aVc:\u005cwindows\u005cfonts\u005cbrowaz.ttf
p3446
ag2601
aVC:\u005cWindows\u005cFonts\u005csymbol.ttf
p3447
aVC:\u005cWindows\u005cFonts\u005cupcdi.ttf
p3448
aVC:\u005cWindows\u005cFonts\u005cbrowaub.ttf
p3449
aVC:\u005cWindows\u005cFonts\u005caparaji.ttf
p3450
ag2605
aVc:\u005cwindows\u005cfonts\u005csegoesc.ttf
p3451
ag2609
ag2613
aVC:\u005cWindows\u005cFonts\u005cpalab.ttf
p3452
aVC:\u005cWindows\u005cFonts\u005cgisha.ttf
p3453
ag2617
ag2621
ag2625
ag2629
aVC:\u005cWindows\u005cFonts\u005carial.ttf
p3454
ag2633
aVc:\u005cwindows\u005cfonts\u005ccorbelz.ttf
p3455
ag2637
ag2641
ag2645
ag2649
ag2653
ag2657
ag2661
ag2665
aVc:\u005cwindows\u005cfonts\u005ccomic.ttf
p3456
aVC:\u005cWindows\u005cFonts\u005cfrank.ttf
p3457
aVc:\u005cwindows\u005cfonts\u005csegoeprb.ttf
p3458
aVC:\u005cWindows\u005cFonts\u005csimsunb.ttf
p3459
ag2669
ag2673
ag2677
ag2681
ag2685
ag2689
aVC:\u005cWindows\u005cFonts\u005cverdanab.ttf
p3460
ag2693
aVc:\u005cwindows\u005cfonts\u005ctahoma.ttf
p3461
ag2697
aVc:\u005cwindows\u005cfonts\u005ckalinga.ttf
p3462
aVc:\u005cwindows\u005cfonts\u005ccordiaub.ttf
p3463
aVC:\u005cWindows\u005cFonts\u005csimpo.ttf
p3464
ag2701
ag2705
ag2709
aVc:\u005cwindows\u005cfonts\u005cmoolbor.ttf
p3465
aVc:\u005cwindows\u005cfonts\u005ccordia.ttf
p3466
aVc:\u005cwindows\u005cfonts\u005cframd.ttf
p3467
ag2713
ag2717
ag2721
ag2725
ag2729
ag2733
ag2737
ag2741
ag2745
ag2749
ag2753
aVc:\u005cwindows\u005cfonts\u005ccordiai.ttf
p3468
ag2757
ag2761
ag2765
aVC:\u005cWindows\u005cFonts\u005cupceb.ttf
p3469
ag2769
ag2773
aVc:\u005cwindows\u005cfonts\u005cimpact.ttf
p3470
aVc:\u005cwindows\u005cfonts\u005cmalgun.ttf
p3471
ag2777
ag2781
ag2785
ag2789
ag2793
aVC:\u005cWindows\u005cFonts\u005cahronbd.ttf
p3472
ag2797
ag2801
aVC:\u005cWindows\u005cFonts\u005ccambriab.ttf
p3473
ag2805
ag2809
ag2813
ag2817
aVC:\u005cWindows\u005cFonts\u005cmsyhbd.ttf
p3474
ag2821
ag2825
ag2829
aVc:\u005cwindows\u005cfonts\u005cgeorgiai.ttf
p3475
ag2833
ag2837
aVc:\u005cwindows\u005cfonts\u005chimalaya.ttf
p3476
ag2841
ag2845
ag2849
ag2853
aVc:\u005cwindows\u005cfonts\u005cestre.ttf
p3477
ag2857
ag2861
ag2865
ag2869
ag2873
ag2877
ag2881
ag2885
ag2889
aVc:\u005cwindows\u005cfonts\u005ccordiaz.ttf
p3478
aVC:\u005cWindows\u005cFonts\u005cariali.ttf
p3479
ag2893
ag2897
ag2901
ag2905
ag2909
ag2913
ag2917
aVC:\u005cWindows\u005cFonts\u005cebrimabd.ttf
p3480
ag2921
ag2925
aVc:\u005cwindows\u005cfonts\u005ccambriaz.ttf
p3481
ag2929
ag2933
aVc:\u005cwindows\u005cfonts\u005cangsau.ttf
p3482
ag2937
ag2941
ag2945
ag2949
aVc:\u005cwindows\u005cfonts\u005cangsaub.ttf
p3483
ag2953
aVC:\u005cWindows\u005cFonts\u005cconstan.ttf
p3484
aVC:\u005cWindows\u005cFonts\u005cmangal.ttf
p3485
aVC:\u005cWindows\u005cFonts\u005csimpfxo.ttf
p3486
ag2957
ag2961
ag2965
ag2969
ag2973
ag2977
ag2981
ag2985
ag2989
aVC:\u005cWindows\u005cFonts\u005cpala.ttf
p3487
ag2993
aVc:\u005cwindows\u005cfonts\u005csegoeuib.ttf
p3488
ag2997
ag3001
ag3005
ag3009
aVc:\u005cwindows\u005cfonts\u005csegoeuil.ttf
p3489
aVC:\u005cWindows\u005cFonts\u005cupcfi.ttf
p3490
ag3013
ag3017
ag3021
aVC:\u005cWindows\u005cFonts\u005crod.ttf
p3491
ag3025
ag3029
ag3033
aVC:\u005cWindows\u005cFonts\u005ctrebucit.ttf
p3492
ag3037
ag3041
ag3045
ag3049
ag3053
aVc:\u005cwindows\u005cfonts\u005cebrima.ttf
p3493
ag3057
ag3061
ag3065
ag3069
ag3073
aVC:\u005cWindows\u005cFonts\u005cvijaya.ttf
p3494
aVc:\u005cwindows\u005cfonts\u005ctrado.ttf
p3495
ag3077
aVc:\u005cwindows\u005cfonts\u005cangsai.ttf
p3496
ag3081
aVC:\u005cWindows\u005cFonts\u005carabtype.ttf
p3497
ag3085
ag3089
aVc:\u005cwindows\u005cfonts\u005cmajalla.ttf
p3498
ag3093
aVc:\u005cwindows\u005cfonts\u005craavi.ttf
p3499
ag3097
aVc:\u005cwindows\u005cfonts\u005ctunga.ttf
p3500
aVC:\u005cWindows\u005cFonts\u005ctimesbi.ttf
p3501
ag3101
aVC:\u005cWindows\u005cFonts\u005csegoescb.ttf
p3502
ag3105
aVc:\u005cwindows\u005cfonts\u005cvrinda.ttf
p3503
ag3109
ag3113
aVc:\u005cwindows\u005cfonts\u005cverdana.ttf
p3504
ag3117
ag3121
aVc:\u005cwindows\u005cfonts\u005clvnm.ttf
p3505
aVC:\u005cWindows\u005cFonts\u005cutsaah.ttf
p3506
aVC:\u005cWindows\u005cFonts\u005ccalibri.ttf
p3507
ag3125
ag3129
ag3133
ag3137
aVc:\u005cwindows\u005cfonts\u005ctimesbd.ttf
p3508
aVc:\u005cwindows\u005cfonts\u005cupcki.ttf
p3509
ag3141
ag3145
ag3149
aVC:\u005cWindows\u005cFonts\u005cupckl.ttf
p3510
ag3153
ag3157
ag3161
aVC:\u005cWindows\u005cFonts\u005cangsaz.ttf
p3511
ag3165
aVC:\u005cWindows\u005cFonts\u005cleelawad.ttf
p3512
aVc:\u005cwindows\u005cfonts\u005cplantc.ttf
p3513
ag3169
aVC:\u005cWindows\u005cFonts\u005ctaile.ttf
p3514
aVC:\u005cWindows\u005cFonts\u005cseguisym.ttf
p3515
aVc:\u005cwindows\u005cfonts\u005cconstani.ttf
p3516
aVC:\u005cWindows\u005cFonts\u005ctimes.ttf
p3517
ag3173
aVc:\u005cwindows\u005cfonts\u005cshruti.ttf
p3518
ag3177
ag3181
ag3185
aVC:\u005cWindows\u005cFonts\u005cupcdl.ttf
p3519
aVC:\u005cWindows\u005cFonts\u005caparajbi.ttf
p3520
ag3189
aVc:\u005cwindows\u005cfonts\u005cpalabi.ttf
p3521
aVC:\u005cWindows\u005cFonts\u005ccordiaui.ttf
p3522
aVC:\u005cWindows\u005cFonts\u005cphagspa.ttf
p3523
aVc:\u005cwindows\u005cfonts\u005clucon.ttf
p3524
ag3193
ag3197
ag3201
ag3205
aVc:\u005cwindows\u005cfonts\u005cbrowa.ttf
p3525
aVC:\u005cWindows\u005cFonts\u005cconsolaz.ttf
p3526
ag3209
aVC:\u005cWindows\u005cFonts\u005cupcei.ttf
p3527
ag3213
ag3217
ag3221
aVc:\u005cwindows\u005cfonts\u005clathab.ttf
p3528
aVc:\u005cwindows\u005cfonts\u005cutsaahbi.ttf
p3529
ag3225
ag3229
ag3233
ag3237
ag3241
ag3245
ag3249
aVc:\u005cwindows\u005cfonts\u005csimfang.ttf
p3530
ag3253
aVc:\u005cwindows\u005cfonts\u005cmvboli.ttf
p3531
aVC:\u005cWindows\u005cFonts\u005ccordiau.ttf
p3532
ag3257
aVC:\u005cWindows\u005cFonts\u005cangsaui.ttf
p3533
aVc:\u005cwindows\u005cfonts\u005clvnmbd.ttf
p3534
ag3261
ag3265
ag3269
ag3273
ag3277
ag3281
ag3285
ag3289
ag3293
aVc:\u005cwindows\u005cfonts\u005ckartika.ttf
p3535
aVc:\u005cwindows\u005cfonts\u005cdokchamp.ttf
p3536
ag3297
aVc:\u005cwindows\u005cfonts\u005cphagspab.ttf
p3537
aVC:\u005cWindows\u005cFonts\u005cgeorgiab.ttf
p3538
ag3301
aVc:\u005cwindows\u005cfonts\u005cntailub.ttf
p3539
aVc:\u005cwindows\u005cfonts\u005cgishabd.ttf
p3540
ag3305
ag3309
aVc:\u005cwindows\u005cfonts\u005ciskpotab.ttf
p3541
ag3313
ag3317
asS'_FontManager__default_weight'
p3542
Vnormal
p3543
sS'_version'
p3544
I101
sS'default_size'
p3545
NsS'defaultFont'
p3546
(dp3547
g3320
VC:\u005cPython27\u005clib\u005csite-packages\u005cmatplotlib\u005cmpl-data\u005cfonts\u005cafm\u005ccmex10.afm
p3548
sg3322
g155
ssS'afmfiles'
p3549
(lp3550
g3548
aVC:\u005cPython27\u005clib\u005csite-packages\u005cmatplotlib\u005cmpl-data\u005cfonts\u005cafm\u005cpagk8a.afm
p3551
aVC:\u005cPython27\u005clib\u005csite-packages\u005cmatplotlib\u005cmpl-data\u005cfonts\u005cafm\u005ccmtt10.afm
p3552
aVC:\u005cPython27\u005clib\u005csite-packages\u005cmatplotlib\u005cmpl-data\u005cfonts\u005cafm\u005cphvr8an.afm
p3553
aVC:\u005cPython27\u005clib\u005csite-packages\u005cmatplotlib\u005cmpl-data\u005cfonts\u005cpdfcorefonts\u005cTimes-Italic.afm
p3554
aVC:\u005cPython27\u005clib\u005csite-packages\u005cmatplotlib\u005cmpl-data\u005cfonts\u005cafm\u005cpagko8a.afm
p3555
aVC:\u005cPython27\u005clib\u005csite-packages\u005cmatplotlib\u005cmpl-data\u005cfonts\u005cafm\u005cpncr8a.afm
p3556
aVC:\u005cPython27\u005clib\u005csite-packages\u005cmatplotlib\u005cmpl-data\u005cfonts\u005cpdfcorefonts\u005cZapfDingbats.afm
p3557
aVC:\u005cPython27\u005clib\u005csite-packages\u005cmatplotlib\u005cmpl-data\u005cfonts\u005cafm\u005cpcrro8a.afm
p3558
aVC:\u005cPython27\u005clib\u005csite-packages\u005cmatplotlib\u005cmpl-data\u005cfonts\u005cafm\u005ccmmi10.afm
p3559
aVC:\u005cPython27\u005clib\u005csite-packages\u005cmatplotlib\u005cmpl-data\u005cfonts\u005cafm\u005ccmr10.afm
p3560
aVC:\u005cPython27\u005clib\u005csite-packages\u005cmatplotlib\u005cmpl-data\u005cfonts\u005cafm\u005cpplri8a.afm
p3561
aVC:\u005cPython27\u005clib\u005csite-packages\u005cmatplotlib\u005cmpl-data\u005cfonts\u005cafm\u005cpagd8a.afm
p3562
aVC:\u005cPython27\u005clib\u005csite-packages\u005cmatplotlib\u005cmpl-data\u005cfonts\u005cafm\u005cphvro8a.afm
p3563
aVC:\u005cPython27\u005clib\u005csite-packages\u005cmatplotlib\u005cmpl-data\u005cfonts\u005cafm\u005cphvb8an.afm
p3564
aVC:\u005cPython27\u005clib\u005csite-packages\u005cmatplotlib\u005cmpl-data\u005cfonts\u005cafm\u005cpncri8a.afm
p3565
aVC:\u005cPython27\u005clib\u005csite-packages\u005cmatplotlib\u005cmpl-data\u005cfonts\u005cafm\u005cpbkdi8a.afm
p3566
aVC:\u005cPython27\u005clib\u005csite-packages\u005cmatplotlib\u005cmpl-data\u005cfonts\u005cafm\u005cputr8a.afm
p3567
aVC:\u005cPython27\u005clib\u005csite-packages\u005cmatplotlib\u005cmpl-data\u005cfonts\u005cpdfcorefonts\u005cCourier.afm
p3568
aVC:\u005cPython27\u005clib\u005csite-packages\u005cmatplotlib\u005cmpl-data\u005cfonts\u005cafm\u005cputbi8a.afm
p3569
aVC:\u005cPython27\u005clib\u005csite-packages\u005cmatplotlib\u005cmpl-data\u005cfonts\u005cafm\u005cptmbi8a.afm
p3570
aVC:\u005cPython27\u005clib\u005csite-packages\u005cmatplotlib\u005cmpl-data\u005cfonts\u005cafm\u005cphvbo8a.afm
p3571
aVC:\u005cPython27\u005clib\u005csite-packages\u005cmatplotlib\u005cmpl-data\u005cfonts\u005cafm\u005cpncbi8a.afm
p3572
aVC:\u005cPython27\u005clib\u005csite-packages\u005cmatplotlib\u005cmpl-data\u005cfonts\u005cpdfcorefonts\u005cTimes-BoldItalic.afm
p3573
aVC:\u005cPython27\u005clib\u005csite-packages\u005cmatplotlib\u005cmpl-data\u005cfonts\u005cafm\u005cptmr8a.afm
p3574
aVC:\u005cPython27\u005clib\u005csite-packages\u005cmatplotlib\u005cmpl-data\u005cfonts\u005cafm\u005cphvb8a.afm
p3575
aVC:\u005cPython27\u005clib\u005csite-packages\u005cmatplotlib\u005cmpl-data\u005cfonts\u005cafm\u005cputri8a.afm
p3576
aVC:\u005cPython27\u005clib\u005csite-packages\u005cmatplotlib\u005cmpl-data\u005cfonts\u005cafm\u005cpbkd8a.afm
p3577
aVC:\u005cPython27\u005clib\u005csite-packages\u005cmatplotlib\u005cmpl-data\u005cfonts\u005cafm\u005cpbkl8a.afm
p3578
aVC:\u005cPython27\u005clib\u005csite-packages\u005cmatplotlib\u005cmpl-data\u005cfonts\u005cafm\u005cphvl8a.afm
p3579
aVC:\u005cPython27\u005clib\u005csite-packages\u005cmatplotlib\u005cmpl-data\u005cfonts\u005cafm\u005cpplr8a.afm
p3580
aVC:\u005cPython27\u005clib\u005csite-packages\u005cmatplotlib\u005cmpl-data\u005cfonts\u005cpdfcorefonts\u005cTimes-Bold.afm
p3581
aVC:\u005cPython27\u005clib\u005csite-packages\u005cmatplotlib\u005cmpl-data\u005cfonts\u005cafm\u005cptmri8a.afm
p3582
aVC:\u005cPython27\u005clib\u005csite-packages\u005cmatplotlib\u005cmpl-data\u005cfonts\u005cafm\u005cpncb8a.afm
p3583
aVC:\u005cPython27\u005clib\u005csite-packages\u005cmatplotlib\u005cmpl-data\u005cfonts\u005cafm\u005cphvr8a.afm
p3584
aVC:\u005cPython27\u005clib\u005csite-packages\u005cmatplotlib\u005cmpl-data\u005cfonts\u005cafm\u005cpcrbo8a.afm
p3585
aVC:\u005cPython27\u005clib\u005csite-packages\u005cmatplotlib\u005cmpl-data\u005cfonts\u005cpdfcorefonts\u005cHelvetica-BoldOblique.afm
p3586
aVC:\u005cPython27\u005clib\u005csite-packages\u005cmatplotlib\u005cmpl-data\u005cfonts\u005cpdfcorefonts\u005cHelvetica-Oblique.afm
p3587
aVC:\u005cPython27\u005clib\u005csite-packages\u005cmatplotlib\u005cmpl-data\u005cfonts\u005cpdfcorefonts\u005cCourier-BoldOblique.afm
p3588
aVC:\u005cPython27\u005clib\u005csite-packages\u005cmatplotlib\u005cmpl-data\u005cfonts\u005cpdfcorefonts\u005cCourier-Bold.afm
p3589
aVC:\u005cPython27\u005clib\u005csite-packages\u005cmatplotlib\u005cmpl-data\u005cfonts\u005cafm\u005cpcrr8a.afm
p3590
aVC:\u005cPython27\u005clib\u005csite-packages\u005cmatplotlib\u005cmpl-data\u005cfonts\u005cafm\u005cpzdr.afm
p3591
aVC:\u005cPython27\u005clib\u005csite-packages\u005cmatplotlib\u005cmpl-data\u005cfonts\u005cafm\u005cpagdo8a.afm
p3592
aVC:\u005cPython27\u005clib\u005csite-packages\u005cmatplotlib\u005cmpl-data\u005cfonts\u005cpdfcorefonts\u005cTimes-Roman.afm
p3593
aVC:\u005cPython27\u005clib\u005csite-packages\u005cmatplotlib\u005cmpl-data\u005cfonts\u005cafm\u005cphvbo8an.afm
p3594
aVC:\u005cPython27\u005clib\u005csite-packages\u005cmatplotlib\u005cmpl-data\u005cfonts\u005cpdfcorefonts\u005cCourier-Oblique.afm
p3595
aVC:\u005cPython27\u005clib\u005csite-packages\u005cmatplotlib\u005cmpl-data\u005cfonts\u005cafm\u005cphvlo8a.afm
p3596
aVC:\u005cPython27\u005clib\u005csite-packages\u005cmatplotlib\u005cmpl-data\u005cfonts\u005cafm\u005cpcrb8a.afm
p3597
aVC:\u005cPython27\u005clib\u005csite-packages\u005cmatplotlib\u005cmpl-data\u005cfonts\u005cafm\u005cptmb8a.afm
p3598
aVC:\u005cPython27\u005clib\u005csite-packages\u005cmatplotlib\u005cmpl-data\u005cfonts\u005cafm\u005cpplb8a.afm
p3599
aVC:\u005cPython27\u005clib\u005csite-packages\u005cmatplotlib\u005cmpl-data\u005cfonts\u005cafm\u005cphvro8an.afm
p3600
aVC:\u005cPython27\u005clib\u005csite-packages\u005cmatplotlib\u005cmpl-data\u005cfonts\u005cafm\u005cpplbi8a.afm
p3601
aVC:\u005cPython27\u005clib\u005csite-packages\u005cmatplotlib\u005cmpl-data\u005cfonts\u005cafm\u005cputb8a.afm
p3602
aVC:\u005cPython27\u005clib\u005csite-packages\u005cmatplotlib\u005cmpl-data\u005cfonts\u005cafm\u005cpsyr.afm
p3603
aVC:\u005cPython27\u005clib\u005csite-packages\u005cmatplotlib\u005cmpl-data\u005cfonts\u005cpdfcorefonts\u005cHelvetica-Bold.afm
p3604
aVC:\u005cPython27\u005clib\u005csite-packages\u005cmatplotlib\u005cmpl-data\u005cfonts\u005cafm\u005ccmsy10.afm
p3605
aVC:\u005cPython27\u005clib\u005csite-packages\u005cmatplotlib\u005cmpl-data\u005cfonts\u005cafm\u005cpbkli8a.afm
p3606
aVC:\u005cPython27\u005clib\u005csite-packages\u005cmatplotlib\u005cmpl-data\u005cfonts\u005cpdfcorefonts\u005cHelvetica.afm
p3607
aVC:\u005cPython27\u005clib\u005csite-packages\u005cmatplotlib\u005cmpl-data\u005cfonts\u005cpdfcorefonts\u005cSymbol.afm
p3608
aVC:\u005cPython27\u005clib\u005csite-packages\u005cmatplotlib\u005cmpl-data\u005cfonts\u005cafm\u005cpzcmi8a.afm
p3609
asS'afmlist'
p3610
(lp3611
g1
(g8
g3
NtRp3612
(dp3613
g11
Vnormal
p3614
sg13
S'Computer Modern'
p3615
sg15
I500
sg16
g3614
sg17
g3614
sg18
g3548
sg20
Vscalable
p3616
sbag1
(g8
g3
NtRp3617
(dp3618
g11
g3614
sg13
S'ITC Avant Garde Gothic'
p3619
sg15
I400
sg16
g3614
sg17
g3614
sg18
g3551
sg20
g3616
sbag1
(g8
g3
NtRp3620
(dp3621
g11
g3614
sg13
S'Computer Modern'
p3622
sg15
I500
sg16
g3614
sg17
g3614
sg18
g3552
sg20
g3616
sbag1
(g8
g3
NtRp3623
(dp3624
g11
g3614
sg13
S'Helvetica'
p3625
sg15
I500
sg16
Vcondensed
p3626
sg17
g3614
sg18
g3553
sg20
g3616
sbag1
(g8
g3
NtRp3627
(dp3628
g11
Vitalic
p3629
sg13
S'Times'
p3630
sg15
I500
sg16
g3614
sg17
g3614
sg18
g3554
sg20
g3616
sbag1
(g8
g3
NtRp3631
(dp3632
g11
g3629
sg13
S'ITC Avant Garde Gothic'
p3633
sg15
I400
sg16
g3614
sg17
g3614
sg18
g3555
sg20
g3616
sbag1
(g8
g3
NtRp3634
(dp3635
g11
g3614
sg13
S'New Century Schoolbook'
p3636
sg15
I500
sg16
g3614
sg17
g3614
sg18
g3556
sg20
g3616
sbag1
(g8
g3
NtRp3637
(dp3638
g11
g3614
sg13
S'ZapfDingbats'
p3639
sg15
I500
sg16
g3614
sg17
g3614
sg18
g3557
sg20
g3616
sbag1
(g8
g3
NtRp3640
(dp3641
g11
g3629
sg13
S'Courier'
p3642
sg15
I500
sg16
g3614
sg17
g3614
sg18
g3558
sg20
g3616
sbag1
(g8
g3
NtRp3643
(dp3644
g11
g3629
sg13
S'Computer Modern'
p3645
sg15
I500
sg16
g3614
sg17
g3614
sg18
g3559
sg20
g3616
sbag1
(g8
g3
NtRp3646
(dp3647
g11
g3614
sg13
S'Computer Modern'
p3648
sg15
I500
sg16
g3614
sg17
g3614
sg18
g3560
sg20
g3616
sbag1
(g8
g3
NtRp3649
(dp3650
g11
g3629
sg13
S'Palatino'
p3651
sg15
I500
sg16
g3614
sg17
g3614
sg18
g3561
sg20
g3616
sbag1
(g8
g3
NtRp3652
(dp3653
g11
g3614
sg13
S'ITC Avant Garde Gothic'
p3654
sg15
I600
sg16
g3614
sg17
g3614
sg18
g3562
sg20
g3616
sbag1
(g8
g3
NtRp3655
(dp3656
g11
g3629
sg13
S'Helvetica'
p3657
sg15
I500
sg16
g3614
sg17
g3614
sg18
g3563
sg20
g3616
sbag1
(g8
g3
NtRp3658
(dp3659
g11
g3614
sg13
S'Helvetica'
p3660
sg15
I700
sg16
g3626
sg17
g3614
sg18
g3564
sg20
g3616
sbag1
(g8
g3
NtRp3661
(dp3662
g11
g3629
sg13
S'New Century Schoolbook'
p3663
sg15
I500
sg16
g3614
sg17
g3614
sg18
g3565
sg20
g3616
sbag1
(g8
g3
NtRp3664
(dp3665
g11
g3629
sg13
S'ITC Bookman'
p3666
sg15
I600
sg16
g3614
sg17
g3614
sg18
g3566
sg20
g3616
sbag1
(g8
g3
NtRp3667
(dp3668
g11
g3614
sg13
S'Utopia'
p3669
sg15
I400
sg16
g3614
sg17
g3614
sg18
g3567
sg20
g3616
sbag1
(g8
g3
NtRp3670
(dp3671
g11
g3614
sg13
S'Courier'
p3672
sg15
I500
sg16
g3614
sg17
g3614
sg18
g3568
sg20
g3616
sbag1
(g8
g3
NtRp3673
(dp3674
g11
g3629
sg13
S'Utopia'
p3675
sg15
I700
sg16
g3614
sg17
g3614
sg18
g3569
sg20
g3616
sbag1
(g8
g3
NtRp3676
(dp3677
g11
g3629
sg13
S'Times'
p3678
sg15
I700
sg16
g3614
sg17
g3614
sg18
g3570
sg20
g3616
sbag1
(g8
g3
NtRp3679
(dp3680
g11
g3629
sg13
S'Helvetica'
p3681
sg15
I700
sg16
g3614
sg17
g3614
sg18
g3571
sg20
g3616
sbag1
(g8
g3
NtRp3682
(dp3683
g11
g3629
sg13
S'New Century Schoolbook'
p3684
sg15
I700
sg16
g3614
sg17
g3614
sg18
g3572
sg20
g3616
sbag1
(g8
g3
NtRp3685
(dp3686
g11
g3629
sg13
S'Times'
p3687
sg15
I700
sg16
g3614
sg17
g3614
sg18
g3573
sg20
g3616
sbag1
(g8
g3
NtRp3688
(dp3689
g11
g3614
sg13
S'Times'
p3690
sg15
I500
sg16
g3614
sg17
g3614
sg18
g3574
sg20
g3616
sbag1
(g8
g3
NtRp3691
(dp3692
g11
g3614
sg13
S'Helvetica'
p3693
sg15
I700
sg16
g3614
sg17
g3614
sg18
g3575
sg20
g3616
sbag1
(g8
g3
NtRp3694
(dp3695
g11
g3629
sg13
S'Utopia'
p3696
sg15
I400
sg16
g3614
sg17
g3614
sg18
g3576
sg20
g3616
sbag1
(g8
g3
NtRp3697
(dp3698
g11
g3614
sg13
S'ITC Bookman'
p3699
sg15
I600
sg16
g3614
sg17
g3614
sg18
g3577
sg20
g3616
sbag1
(g8
g3
NtRp3700
(dp3701
g11
g3614
sg13
S'ITC Bookman'
p3702
sg15
I200
sg16
g3614
sg17
g3614
sg18
g3578
sg20
g3616
sbag1
(g8
g3
NtRp3703
(dp3704
g11
g3614
sg13
S'Helvetica'
p3705
sg15
I200
sg16
g3614
sg17
g3614
sg18
g3579
sg20
g3616
sbag1
(g8
g3
NtRp3706
(dp3707
g11
g3614
sg13
S'Palatino'
p3708
sg15
I500
sg16
g3614
sg17
g3614
sg18
g3580
sg20
g3616
sbag1
(g8
g3
NtRp3709
(dp3710
g11
g3614
sg13
S'Times'
p3711
sg15
I700
sg16
g3614
sg17
g3614
sg18
g3581
sg20
g3616
sbag1
(g8
g3
NtRp3712
(dp3713
g11
g3629
sg13
S'Times'
p3714
sg15
I500
sg16
g3614
sg17
g3614
sg18
g3582
sg20
g3616
sbag1
(g8
g3
NtRp3715
(dp3716
g11
g3614
sg13
S'New Century Schoolbook'
p3717
sg15
I700
sg16
g3614
sg17
g3614
sg18
g3583
sg20
g3616
sbag1
(g8
g3
NtRp3718
(dp3719
g11
g3614
sg13
S'Helvetica'
p3720
sg15
I500
sg16
g3614
sg17
g3614
sg18
g3584
sg20
g3616
sbag1
(g8
g3
NtRp3721
(dp3722
g11
g3629
sg13
S'Courier'
p3723
sg15
I700
sg16
g3614
sg17
g3614
sg18
g3585
sg20
g3616
sbag1
(g8
g3
NtRp3724
(dp3725
g11
g3629
sg13
S'Helvetica'
p3726
sg15
I700
sg16
g3614
sg17
g3614
sg18
g3586
sg20
g3616
sbag1
(g8
g3
NtRp3727
(dp3728
g11
g3629
sg13
S'Helvetica'
p3729
sg15
I500
sg16
g3614
sg17
g3614
sg18
g3587
sg20
g3616
sbag1
(g8
g3
NtRp3730
(dp3731
g11
g3629
sg13
S'Courier'
p3732
sg15
I700
sg16
g3614
sg17
g3614
sg18
g3588
sg20
g3616
sbag1
(g8
g3
NtRp3733
(dp3734
g11
g3614
sg13
S'Courier'
p3735
sg15
I700
sg16
g3614
sg17
g3614
sg18
g3589
sg20
g3616
sbag1
(g8
g3
NtRp3736
(dp3737
g11
g3614
sg13
S'Courier'
p3738
sg15
I500
sg16
g3614
sg17
g3614
sg18
g3590
sg20
g3616
sbag1
(g8
g3
NtRp3739
(dp3740
g11
g3614
sg13
S'ITC Zapf Dingbats'
p3741
sg15
I500
sg16
g3614
sg17
g3614
sg18
g3591
sg20
g3616
sbag1
(g8
g3
NtRp3742
(dp3743
g11
g3629
sg13
S'ITC Avant Garde Gothic'
p3744
sg15
I600
sg16
g3614
sg17
g3614
sg18
g3592
sg20
g3616
sbag1
(g8
g3
NtRp3745
(dp3746
g11
g3614
sg13
S'Times'
p3747
sg15
I500
sg16
g3614
sg17
g3614
sg18
g3593
sg20
g3616
sbag1
(g8
g3
NtRp3748
(dp3749
g11
g3629
sg13
S'Helvetica'
p3750
sg15
I700
sg16
g3626
sg17
g3614
sg18
g3594
sg20
g3616
sbag1
(g8
g3
NtRp3751
(dp3752
g11
g3629
sg13
S'Courier'
p3753
sg15
I500
sg16
g3614
sg17
g3614
sg18
g3595
sg20
g3616
sbag1
(g8
g3
NtRp3754
(dp3755
g11
g3629
sg13
S'Helvetica'
p3756
sg15
I200
sg16
g3614
sg17
g3614
sg18
g3596
sg20
g3616
sbag1
(g8
g3
NtRp3757
(dp3758
g11
g3614
sg13
S'Courier'
p3759
sg15
I700
sg16
g3614
sg17
g3614
sg18
g3597
sg20
g3616
sbag1
(g8
g3
NtRp3760
(dp3761
g11
g3614
sg13
S'Times'
p3762
sg15
I700
sg16
g3614
sg17
g3614
sg18
g3598
sg20
g3616
sbag1
(g8
g3
NtRp3763
(dp3764
g11
g3614
sg13
S'Palatino'
p3765
sg15
I700
sg16
g3614
sg17
g3614
sg18
g3599
sg20
g3616
sbag1
(g8
g3
NtRp3766
(dp3767
g11
g3629
sg13
S'Helvetica'
p3768
sg15
I500
sg16
g3626
sg17
g3614
sg18
g3600
sg20
g3616
sbag1
(g8
g3
NtRp3769
(dp3770
g11
g3629
sg13
S'Palatino'
p3771
sg15
I700
sg16
g3614
sg17
g3614
sg18
g3601
sg20
g3616
sbag1
(g8
g3
NtRp3772
(dp3773
g11
g3614
sg13
S'Utopia'
p3774
sg15
I700
sg16
g3614
sg17
g3614
sg18
g3602
sg20
g3616
sbag1
(g8
g3
NtRp3775
(dp3776
g11
g3614
sg13
S'Symbol'
p3777
sg15
I500
sg16
g3614
sg17
g3614
sg18
g3603
sg20
g3616
sbag1
(g8
g3
NtRp3778
(dp3779
g11
g3614
sg13
S'Helvetica'
p3780
sg15
I700
sg16
g3614
sg17
g3614
sg18
g3604
sg20
g3616
sbag1
(g8
g3
NtRp3781
(dp3782
g11
g3629
sg13
S'Computer Modern'
p3783
sg15
I500
sg16
g3614
sg17
g3614
sg18
g3605
sg20
g3616
sbag1
(g8
g3
NtRp3784
(dp3785
g11
g3629
sg13
S'ITC Bookman'
p3786
sg15
I200
sg16
g3614
sg17
g3614
sg18
g3606
sg20
g3616
sbag1
(g8
g3
NtRp3787
(dp3788
g11
g3614
sg13
S'Helvetica'
p3789
sg15
I500
sg16
g3614
sg17
g3614
sg18
g3607
sg20
g3616
sbag1
(g8
g3
NtRp3790
(dp3791
g11
g3614
sg13
S'Symbol'
p3792
sg15
I500
sg16
g3614
sg17
g3614
sg18
g3608
sg20
g3616
sbag1
(g8
g3
NtRp3793
(dp3794
g11
g3629
sg13
S'ITC Zapf Chancery'
p3795
sg15
I500
sg16
g3614
sg17
g3614
sg18
g3609
sg20
g3616
sbasb.